ARM GAS  /tmp/cc6wRzLR.s 			page 1


   1              		.syntax unified
   2              		.cpu cortex-m3
   3              		.fpu softvfp
   4              		.eabi_attribute 20, 1
   5              		.eabi_attribute 21, 1
   6              		.eabi_attribute 23, 3
   7              		.eabi_attribute 24, 1
   8              		.eabi_attribute 25, 1
   9              		.eabi_attribute 26, 1
  10              		.eabi_attribute 30, 4
  11              		.eabi_attribute 34, 1
  12              		.eabi_attribute 18, 4
  13              		.thumb
  14              		.file	"diskio.c"
  15              		.section	.text.disk_status,"ax",%progbits
  16              		.align	1
  17              		.global	disk_status
  18              		.thumb
  19              		.thumb_func
  21              	disk_status:
  22              		@ args = 0, pretend = 0, frame = 0
  23              		@ frame_needed = 0, uses_anonymous_args = 0
  24              		@ link register save eliminated.
  25 0000 034B     		ldr	r3, .L2
  26 0002 03EB8002 		add	r2, r3, r0, lsl #2
  27 0006 5268     		ldr	r2, [r2, #4]
  28 0008 1844     		add	r0, r0, r3
  29 000a 007A     		ldrb	r0, [r0, #8]	@ zero_extendqisi2
  30 000c 5368     		ldr	r3, [r2, #4]
  31 000e 1847     		bx	r3
  32              	.L3:
  33              		.align	2
  34              	.L2:
  35 0010 00000000 		.word	disk
  37              		.section	.text.disk_initialize,"ax",%progbits
  38              		.align	1
  39              		.global	disk_initialize
  40              		.thumb
  41              		.thumb_func
  43              	disk_initialize:
  44              		@ args = 0, pretend = 0, frame = 0
  45              		@ frame_needed = 0, uses_anonymous_args = 0
  46              		@ link register save eliminated.
  47 0000 064B     		ldr	r3, .L7
  48 0002 1A5C     		ldrb	r2, [r3, r0]	@ zero_extendqisi2
  49 0004 42B9     		cbnz	r2, .L5
  50 0006 0122     		movs	r2, #1
  51 0008 1A54     		strb	r2, [r3, r0]
  52 000a 03EB8002 		add	r2, r3, r0, lsl #2
  53 000e 5268     		ldr	r2, [r2, #4]
  54 0010 1844     		add	r0, r0, r3
  55 0012 007A     		ldrb	r0, [r0, #8]	@ zero_extendqisi2
  56 0014 1368     		ldr	r3, [r2]
  57 0016 1847     		bx	r3
  58              	.L5:
  59 0018 0020     		movs	r0, #0
  60 001a 7047     		bx	lr
ARM GAS  /tmp/cc6wRzLR.s 			page 2


  61              	.L8:
  62              		.align	2
  63              	.L7:
  64 001c 00000000 		.word	disk
  66              		.section	.text.disk_read,"ax",%progbits
  67              		.align	1
  68              		.global	disk_read
  69              		.thumb
  70              		.thumb_func
  72              	disk_read:
  73              		@ args = 0, pretend = 0, frame = 0
  74              		@ frame_needed = 0, uses_anonymous_args = 0
  75 0000 30B5     		push	{r4, r5, lr}
  76 0002 054C     		ldr	r4, .L10
  77 0004 04EB8005 		add	r5, r4, r0, lsl #2
  78 0008 6D68     		ldr	r5, [r5, #4]
  79 000a 2044     		add	r0, r0, r4
  80 000c AC68     		ldr	r4, [r5, #8]
  81 000e 007A     		ldrb	r0, [r0, #8]	@ zero_extendqisi2
  82 0010 A446     		mov	ip, r4
  83 0012 BDE83040 		pop	{r4, r5, lr}
  84 0016 6047     		bx	ip
  85              	.L11:
  86              		.align	2
  87              	.L10:
  88 0018 00000000 		.word	disk
  90              		.section	.text.disk_write,"ax",%progbits
  91              		.align	1
  92              		.global	disk_write
  93              		.thumb
  94              		.thumb_func
  96              	disk_write:
  97              		@ args = 0, pretend = 0, frame = 0
  98              		@ frame_needed = 0, uses_anonymous_args = 0
  99 0000 30B5     		push	{r4, r5, lr}
 100 0002 054C     		ldr	r4, .L13
 101 0004 04EB8005 		add	r5, r4, r0, lsl #2
 102 0008 6D68     		ldr	r5, [r5, #4]
 103 000a 2044     		add	r0, r0, r4
 104 000c EC68     		ldr	r4, [r5, #12]
 105 000e 007A     		ldrb	r0, [r0, #8]	@ zero_extendqisi2
 106 0010 A446     		mov	ip, r4
 107 0012 BDE83040 		pop	{r4, r5, lr}
 108 0016 6047     		bx	ip
 109              	.L14:
 110              		.align	2
 111              	.L13:
 112 0018 00000000 		.word	disk
 114              		.section	.text.disk_ioctl,"ax",%progbits
 115              		.align	1
 116              		.global	disk_ioctl
 117              		.thumb
 118              		.thumb_func
 120              	disk_ioctl:
 121              		@ args = 0, pretend = 0, frame = 0
 122              		@ frame_needed = 0, uses_anonymous_args = 0
 123 0000 10B5     		push	{r4, lr}
ARM GAS  /tmp/cc6wRzLR.s 			page 3


 124 0002 054B     		ldr	r3, .L16
 125 0004 03EB8004 		add	r4, r3, r0, lsl #2
 126 0008 6468     		ldr	r4, [r4, #4]
 127 000a 1844     		add	r0, r0, r3
 128 000c 007A     		ldrb	r0, [r0, #8]	@ zero_extendqisi2
 129 000e 2369     		ldr	r3, [r4, #16]
 130 0010 BDE81040 		pop	{r4, lr}
 131 0014 1847     		bx	r3
 132              	.L17:
 133 0016 00BF     		.align	2
 134              	.L16:
 135 0018 00000000 		.word	disk
 137              		.section	.text.get_fattime,"ax",%progbits
 138              		.align	1
 139              		.weak	get_fattime
 140              		.thumb
 141              		.thumb_func
 143              	get_fattime:
 144              		@ args = 0, pretend = 0, frame = 0
 145              		@ frame_needed = 0, uses_anonymous_args = 0
 146              		@ link register save eliminated.
 147 0000 0020     		movs	r0, #0
 148 0002 7047     		bx	lr
 150              		.ident	"GCC: (15:4.9.3+svn231177-1) 4.9.3 20150529 (prerelease)"
ARM GAS  /tmp/cc6wRzLR.s 			page 4

