ARM GAS  /tmp/ccg8rFvg.s 			page 1


   1              		.syntax unified
   2              		.cpu cortex-m3
   3              		.fpu softvfp
   4              		.eabi_attribute 20, 1
   5              		.eabi_attribute 21, 1
   6              		.eabi_attribute 23, 3
   7              		.eabi_attribute 24, 1
   8              		.eabi_attribute 25, 1
   9              		.eabi_attribute 26, 1
  10              		.eabi_attribute 30, 4
  11              		.eabi_attribute 34, 1
  12              		.eabi_attribute 18, 4
  13              		.thumb
  14              		.file	"ff.c"
  15              		.section	.text.mem_cpy,"ax",%progbits
  16              		.align	1
  17              		.thumb
  18              		.thumb_func
  20              	mem_cpy:
  21              		@ args = 0, pretend = 0, frame = 0
  22              		@ frame_needed = 0, uses_anonymous_args = 0
  23              		@ link register save eliminated.
  24 0000 0138     		subs	r0, r0, #1
  25 0002 0A44     		add	r2, r2, r1
  26              	.L2:
  27 0004 9142     		cmp	r1, r2
  28 0006 04D0     		beq	.L5
  29 0008 11F8013B 		ldrb	r3, [r1], #1	@ zero_extendqisi2
  30 000c 00F8013F 		strb	r3, [r0, #1]!
  31 0010 F8E7     		b	.L2
  32              	.L5:
  33 0012 7047     		bx	lr
  35              		.section	.text.inc_lock,"ax",%progbits
  36              		.align	1
  37              		.thumb
  38              		.thumb_func
  40              	inc_lock:
  41              		@ args = 0, pretend = 0, frame = 0
  42              		@ frame_needed = 0, uses_anonymous_args = 0
  43 0000 70B5     		push	{r4, r5, r6, lr}
  44 0002 214A     		ldr	r2, .L26
  45 0004 0668     		ldr	r6, [r0]
  46 0006 0023     		movs	r3, #0
  47              	.L9:
  48 0008 52F8044C 		ldr	r4, [r2, #-4]
  49 000c B442     		cmp	r4, r6
  50 000e 07D1     		bne	.L7
  51 0010 1568     		ldr	r5, [r2]
  52 0012 8468     		ldr	r4, [r0, #8]
  53 0014 A542     		cmp	r5, r4
  54 0016 03D1     		bne	.L7
  55 0018 9588     		ldrh	r5, [r2, #4]
  56 001a C488     		ldrh	r4, [r0, #6]
  57 001c A542     		cmp	r5, r4
  58 001e 05D0     		beq	.L8
  59              	.L7:
  60 0020 012B     		cmp	r3, #1
ARM GAS  /tmp/ccg8rFvg.s 			page 2


  61 0022 02F10C02 		add	r2, r2, #12
  62 0026 09D0     		beq	.L23
  63 0028 0123     		movs	r3, #1
  64 002a EDE7     		b	.L9
  65              	.L8:
  66 002c B9B1     		cbz	r1, .L13
  67 002e 1749     		ldr	r1, .L26+4
  68 0030 0C22     		movs	r2, #12
  69 0032 02FB0312 		mla	r2, r2, r3, r1
  70 0036 5289     		ldrh	r2, [r2, #10]
  71 0038 CAB1     		cbz	r2, .L19
  72 003a 21E0     		b	.L18
  73              	.L23:
  74 003c 134A     		ldr	r2, .L26+4
  75 003e 1468     		ldr	r4, [r2]
  76 0040 1546     		mov	r5, r2
  77 0042 FCB1     		cbz	r4, .L25
  78 0044 D268     		ldr	r2, [r2, #12]
  79 0046 DAB9     		cbnz	r2, .L18
  80              	.L12:
  81 0048 0C22     		movs	r2, #12
  82 004a 5A43     		muls	r2, r3, r2
  83 004c AC18     		adds	r4, r5, r2
  84 004e AE50     		str	r6, [r5, r2]
  85 0050 8268     		ldr	r2, [r0, #8]
  86 0052 C088     		ldrh	r0, [r0, #6]
  87 0054 6260     		str	r2, [r4, #4]
  88 0056 2081     		strh	r0, [r4, #8]	@ movhi
  89 0058 0020     		movs	r0, #0
  90 005a 6081     		strh	r0, [r4, #10]	@ movhi
  91 005c 39B9     		cbnz	r1, .L19
  92              	.L13:
  93 005e 0B49     		ldr	r1, .L26+4
  94 0060 0C22     		movs	r2, #12
  95 0062 02FB0312 		mla	r2, r2, r3, r1
  96 0066 5289     		ldrh	r2, [r2, #10]
  97 0068 0132     		adds	r2, r2, #1
  98 006a 92B2     		uxth	r2, r2
  99 006c 01E0     		b	.L14
 100              	.L19:
 101 006e 4FF48072 		mov	r2, #256
 102              	.L14:
 103 0072 0648     		ldr	r0, .L26+4
 104 0074 0C21     		movs	r1, #12
 105 0076 01FB0301 		mla	r1, r1, r3, r0
 106 007a 581C     		adds	r0, r3, #1
 107 007c 4A81     		strh	r2, [r1, #10]	@ movhi
 108 007e 70BD     		pop	{r4, r5, r6, pc}
 109              	.L18:
 110 0080 0020     		movs	r0, #0
 111 0082 70BD     		pop	{r4, r5, r6, pc}
 112              	.L25:
 113 0084 2346     		mov	r3, r4
 114 0086 DFE7     		b	.L12
 115              	.L27:
 116              		.align	2
 117              	.L26:
ARM GAS  /tmp/ccg8rFvg.s 			page 3


 118 0088 04000000 		.word	.LANCHOR0+4
 119 008c 00000000 		.word	.LANCHOR0
 121              		.section	.text.dec_lock,"ax",%progbits
 122              		.align	1
 123              		.thumb
 124              		.thumb_func
 126              	dec_lock:
 127              		@ args = 0, pretend = 0, frame = 0
 128              		@ frame_needed = 0, uses_anonymous_args = 0
 129 0000 10B5     		push	{r4, lr}
 130 0002 441E     		subs	r4, r0, #1
 131 0004 012C     		cmp	r4, #1
 132 0006 11D8     		bhi	.L31
 133 0008 0A4A     		ldr	r2, .L34
 134 000a 0C23     		movs	r3, #12
 135 000c 03FB0421 		mla	r1, r3, r4, r2
 136 0010 4989     		ldrh	r1, [r1, #10]
 137 0012 21F48070 		bic	r0, r1, #256
 138 0016 80B2     		uxth	r0, r0
 139 0018 08B1     		cbz	r0, .L30
 140 001a 0139     		subs	r1, r1, #1
 141 001c 88B2     		uxth	r0, r1
 142              	.L30:
 143 001e 6343     		muls	r3, r4, r3
 144 0020 1A44     		add	r2, r2, r3
 145 0022 5081     		strh	r0, [r2, #10]	@ movhi
 146 0024 20B9     		cbnz	r0, .L33
 147 0026 034A     		ldr	r2, .L34
 148 0028 D050     		str	r0, [r2, r3]
 149 002a 10BD     		pop	{r4, pc}
 150              	.L31:
 151 002c 0220     		movs	r0, #2
 152 002e 10BD     		pop	{r4, pc}
 153              	.L33:
 154 0030 0020     		movs	r0, #0
 155 0032 10BD     		pop	{r4, pc}
 156              	.L35:
 157              		.align	2
 158              	.L34:
 159 0034 00000000 		.word	.LANCHOR0
 161              		.section	.text.get_ldnumber,"ax",%progbits
 162              		.align	1
 163              		.thumb
 164              		.thumb_func
 166              	get_ldnumber:
 167              		@ args = 0, pretend = 0, frame = 0
 168              		@ frame_needed = 0, uses_anonymous_args = 0
 169 0000 0368     		ldr	r3, [r0]
 170 0002 10B5     		push	{r4, lr}
 171 0004 93B1     		cbz	r3, .L47
 172 0006 1A46     		mov	r2, r3
 173              	.L38:
 174 0008 1446     		mov	r4, r2
 175 000a 12F8011B 		ldrb	r1, [r2], #1	@ zero_extendqisi2
 176 000e 2029     		cmp	r1, #32
 177 0010 0AD9     		bls	.L42
 178 0012 3A29     		cmp	r1, #58
ARM GAS  /tmp/ccg8rFvg.s 			page 4


 179 0014 F8D1     		bne	.L38
 180 0016 1A46     		mov	r2, r3
 181 0018 12F8011B 		ldrb	r1, [r2], #1	@ zero_extendqisi2
 182 001c 9442     		cmp	r4, r2
 183 001e 05D1     		bne	.L47
 184 0020 3029     		cmp	r1, #48
 185 0022 03D1     		bne	.L47
 186 0024 0233     		adds	r3, r3, #2
 187 0026 0360     		str	r3, [r0]
 188              	.L42:
 189 0028 0020     		movs	r0, #0
 190 002a 10BD     		pop	{r4, pc}
 191              	.L47:
 192 002c 4FF0FF30 		mov	r0, #-1
 193 0030 10BD     		pop	{r4, pc}
 195              		.section	.text.validate,"ax",%progbits
 196              		.align	1
 197              		.thumb
 198              		.thumb_func
 200              	validate:
 201              		@ args = 0, pretend = 0, frame = 0
 202              		@ frame_needed = 0, uses_anonymous_args = 0
 203 0000 08B5     		push	{r3, lr}
 204 0002 98B1     		cbz	r0, .L53
 205 0004 0368     		ldr	r3, [r0]
 206 0006 8BB1     		cbz	r3, .L53
 207 0008 93F80022 		ldrb	r2, [r3, #512]	@ zero_extendqisi2
 208 000c 72B1     		cbz	r2, .L53
 209 000e B3F80612 		ldrh	r1, [r3, #518]
 210 0012 8288     		ldrh	r2, [r0, #4]
 211 0014 9142     		cmp	r1, r2
 212 0016 09D1     		bne	.L53
 213 0018 93F80102 		ldrb	r0, [r3, #513]	@ zero_extendqisi2
 214 001c FFF7FEFF 		bl	disk_status
 215 0020 10F0010F 		tst	r0, #1
 216 0024 0CBF     		ite	eq
 217 0026 0020     		moveq	r0, #0
 218 0028 0920     		movne	r0, #9
 219 002a 08BD     		pop	{r3, pc}
 220              	.L53:
 221 002c 0920     		movs	r0, #9
 222 002e 08BD     		pop	{r3, pc}
 224              		.section	.text.ld_clust.isra.0,"ax",%progbits
 225              		.align	1
 226              		.thumb
 227              		.thumb_func
 229              	ld_clust.isra.0:
 230              		@ args = 0, pretend = 0, frame = 0
 231              		@ frame_needed = 0, uses_anonymous_args = 0
 232              		@ link register save eliminated.
 233 0000 CA7E     		ldrb	r2, [r1, #27]	@ zero_extendqisi2
 234 0002 8B7E     		ldrb	r3, [r1, #26]	@ zero_extendqisi2
 235 0004 0328     		cmp	r0, #3
 236 0006 43EA0223 		orr	r3, r3, r2, lsl #8
 237 000a 01BF     		itttt	eq
 238 000c 487D     		ldrbeq	r0, [r1, #21]	@ zero_extendqisi2
 239 000e 0A7D     		ldrbeq	r2, [r1, #20]	@ zero_extendqisi2
ARM GAS  /tmp/ccg8rFvg.s 			page 5


 240 0010 42EA0022 		orreq	r2, r2, r0, lsl #8
 241 0014 43EA0243 		orreq	r3, r3, r2, lsl #16
 242 0018 1846     		mov	r0, r3
 243 001a 7047     		bx	lr
 245              		.section	.text.sync_window,"ax",%progbits
 246              		.align	1
 247              		.thumb
 248              		.thumb_func
 250              	sync_window:
 251              		@ args = 0, pretend = 0, frame = 0
 252              		@ frame_needed = 0, uses_anonymous_args = 0
 253 0000 70B5     		push	{r4, r5, r6, lr}
 254 0002 90F80432 		ldrb	r3, [r0, #516]	@ zero_extendqisi2
 255 0006 0446     		mov	r4, r0
 256 0008 0BB9     		cbnz	r3, .L58
 257              	.L60:
 258 000a 0020     		movs	r0, #0
 259 000c 70BD     		pop	{r4, r5, r6, pc}
 260              	.L58:
 261 000e D0F82C52 		ldr	r5, [r0, #556]
 262 0012 2146     		mov	r1, r4
 263 0014 90F80102 		ldrb	r0, [r0, #513]	@ zero_extendqisi2
 264 0018 2A46     		mov	r2, r5
 265 001a 0123     		movs	r3, #1
 266 001c FFF7FEFF 		bl	disk_write
 267 0020 C0B9     		cbnz	r0, .L63
 268 0022 D4F82032 		ldr	r3, [r4, #544]
 269 0026 D4F81822 		ldr	r2, [r4, #536]
 270 002a EB1A     		subs	r3, r5, r3
 271 002c 9342     		cmp	r3, r2
 272 002e 84F80402 		strb	r0, [r4, #516]
 273 0032 EAD2     		bcs	.L60
 274 0034 94F80362 		ldrb	r6, [r4, #515]	@ zero_extendqisi2
 275              	.L61:
 276 0038 012E     		cmp	r6, #1
 277 003a E6D9     		bls	.L60
 278 003c D4F81832 		ldr	r3, [r4, #536]
 279 0040 94F80102 		ldrb	r0, [r4, #513]	@ zero_extendqisi2
 280 0044 1D44     		add	r5, r5, r3
 281 0046 2146     		mov	r1, r4
 282 0048 2A46     		mov	r2, r5
 283 004a 0123     		movs	r3, #1
 284 004c FFF7FEFF 		bl	disk_write
 285 0050 013E     		subs	r6, r6, #1
 286 0052 F1E7     		b	.L61
 287              	.L63:
 288 0054 0120     		movs	r0, #1
 289 0056 70BD     		pop	{r4, r5, r6, pc}
 291              		.section	.text.move_window,"ax",%progbits
 292              		.align	1
 293              		.thumb
 294              		.thumb_func
 296              	move_window:
 297              		@ args = 0, pretend = 0, frame = 0
 298              		@ frame_needed = 0, uses_anonymous_args = 0
 299 0000 D0F82C32 		ldr	r3, [r0, #556]
 300 0004 70B5     		push	{r4, r5, r6, lr}
ARM GAS  /tmp/ccg8rFvg.s 			page 6


 301 0006 9942     		cmp	r1, r3
 302 0008 0646     		mov	r6, r0
 303 000a 0D46     		mov	r5, r1
 304 000c 12D0     		beq	.L67
 305 000e FFF7FEFF 		bl	sync_window
 306 0012 0446     		mov	r4, r0
 307 0014 78B9     		cbnz	r0, .L65
 308 0016 2A46     		mov	r2, r5
 309 0018 96F80102 		ldrb	r0, [r6, #513]	@ zero_extendqisi2
 310 001c 3146     		mov	r1, r6
 311 001e 0123     		movs	r3, #1
 312 0020 FFF7FEFF 		bl	disk_read
 313 0024 0028     		cmp	r0, #0
 314 0026 1CBF     		itt	ne
 315 0028 4FF0FF35 		movne	r5, #-1
 316 002c 0124     		movne	r4, #1
 317 002e C6F82C52 		str	r5, [r6, #556]
 318 0032 00E0     		b	.L65
 319              	.L67:
 320 0034 0024     		movs	r4, #0
 321              	.L65:
 322 0036 2046     		mov	r0, r4
 323 0038 70BD     		pop	{r4, r5, r6, pc}
 325              		.section	.text.check_fs,"ax",%progbits
 326              		.align	1
 327              		.thumb
 328              		.thumb_func
 330              	check_fs:
 331              		@ args = 0, pretend = 0, frame = 0
 332              		@ frame_needed = 0, uses_anonymous_args = 0
 333 0000 0023     		movs	r3, #0
 334 0002 10B5     		push	{r4, lr}
 335 0004 80F80432 		strb	r3, [r0, #516]
 336 0008 4FF0FF33 		mov	r3, #-1
 337 000c C0F82C32 		str	r3, [r0, #556]
 338 0010 0446     		mov	r4, r0
 339 0012 FFF7FEFF 		bl	move_window
 340 0016 80BB     		cbnz	r0, .L72
 341 0018 94F8FF21 		ldrb	r2, [r4, #511]	@ zero_extendqisi2
 342 001c 94F8FE31 		ldrb	r3, [r4, #510]	@ zero_extendqisi2
 343 0020 43EA0223 		orr	r3, r3, r2, lsl #8
 344 0024 4AF65522 		movw	r2, #43605
 345 0028 9342     		cmp	r3, r2
 346 002a 28D1     		bne	.L73
 347 002c 94F83830 		ldrb	r3, [r4, #56]	@ zero_extendqisi2
 348 0030 94F83920 		ldrb	r2, [r4, #57]	@ zero_extendqisi2
 349 0034 1B04     		lsls	r3, r3, #16
 350 0036 43EA0263 		orr	r3, r3, r2, lsl #24
 351 003a 94F83620 		ldrb	r2, [r4, #54]	@ zero_extendqisi2
 352 003e 1343     		orrs	r3, r3, r2
 353 0040 94F83720 		ldrb	r2, [r4, #55]	@ zero_extendqisi2
 354 0044 43EA0223 		orr	r3, r3, r2, lsl #8
 355 0048 0E4A     		ldr	r2, .L75
 356 004a 23F07F43 		bic	r3, r3, #-16777216
 357 004e 9342     		cmp	r3, r2
 358 0050 16D0     		beq	.L71
 359 0052 94F85430 		ldrb	r3, [r4, #84]	@ zero_extendqisi2
ARM GAS  /tmp/ccg8rFvg.s 			page 7


 360 0056 94F85500 		ldrb	r0, [r4, #85]	@ zero_extendqisi2
 361 005a 1B04     		lsls	r3, r3, #16
 362 005c 43EA0060 		orr	r0, r3, r0, lsl #24
 363 0060 94F85230 		ldrb	r3, [r4, #82]	@ zero_extendqisi2
 364 0064 0343     		orrs	r3, r3, r0
 365 0066 94F85300 		ldrb	r0, [r4, #83]	@ zero_extendqisi2
 366 006a 43EA0020 		orr	r0, r3, r0, lsl #8
 367 006e 20F07F40 		bic	r0, r0, #-16777216
 368 0072 801A     		subs	r0, r0, r2
 369 0074 18BF     		it	ne
 370 0076 0120     		movne	r0, #1
 371 0078 10BD     		pop	{r4, pc}
 372              	.L72:
 373 007a 0320     		movs	r0, #3
 374 007c 10BD     		pop	{r4, pc}
 375              	.L73:
 376 007e 0220     		movs	r0, #2
 377              	.L71:
 378 0080 10BD     		pop	{r4, pc}
 379              	.L76:
 380 0082 00BF     		.align	2
 381              	.L75:
 382 0084 46415400 		.word	5521734
 384              		.section	.text.find_volume,"ax",%progbits
 385              		.align	1
 386              		.thumb
 387              		.thumb_func
 389              	find_volume:
 390              		@ args = 0, pretend = 0, frame = 16
 391              		@ frame_needed = 0, uses_anonymous_args = 0
 392 0000 F0B5     		push	{r4, r5, r6, r7, lr}
 393 0002 0023     		movs	r3, #0
 394 0004 0360     		str	r3, [r0]
 395 0006 85B0     		sub	sp, sp, #20
 396 0008 0746     		mov	r7, r0
 397 000a 0846     		mov	r0, r1
 398 000c 1546     		mov	r5, r2
 399 000e FFF7FEFF 		bl	get_ldnumber
 400 0012 061E     		subs	r6, r0, #0
 401 0014 C0F27781 		blt	.L102
 402 0018 C24B     		ldr	r3, .L143
 403 001a 53F82640 		ldr	r4, [r3, r6, lsl #2]
 404 001e 002C     		cmp	r4, #0
 405 0020 00F07381 		beq	.L103
 406 0024 3C60     		str	r4, [r7]
 407 0026 94F80032 		ldrb	r3, [r4, #512]	@ zero_extendqisi2
 408 002a 8BB1     		cbz	r3, .L79
 409 002c 94F80102 		ldrb	r0, [r4, #513]	@ zero_extendqisi2
 410 0030 FFF7FEFF 		bl	disk_status
 411 0034 C707     		lsls	r7, r0, #31
 412 0036 0BD4     		bmi	.L79
 413 0038 002D     		cmp	r5, #0
 414 003a 00F06881 		beq	.L104
 415 003e 00F00403 		and	r3, r0, #4
 416 0042 03F0FF00 		and	r0, r3, #255
 417 0046 002B     		cmp	r3, #0
 418 0048 00F06981 		beq	.L140
ARM GAS  /tmp/ccg8rFvg.s 			page 8


 419              	.L81:
 420 004c 0A20     		movs	r0, #10
 421 004e 66E1     		b	.L140
 422              	.L79:
 423 0050 F0B2     		uxtb	r0, r6
 424 0052 0023     		movs	r3, #0
 425 0054 84F80032 		strb	r3, [r4, #512]
 426 0058 84F80102 		strb	r0, [r4, #513]
 427 005c FFF7FEFF 		bl	disk_initialize
 428 0060 C607     		lsls	r6, r0, #31
 429 0062 00F15681 		bmi	.L106
 430 0066 0DB1     		cbz	r5, .L80
 431 0068 4107     		lsls	r1, r0, #29
 432 006a EFD4     		bmi	.L81
 433              	.L80:
 434 006c 2046     		mov	r0, r4
 435 006e 0021     		movs	r1, #0
 436 0070 FFF7FEFF 		bl	check_fs
 437 0074 0128     		cmp	r0, #1
 438 0076 28D1     		bne	.L82
 439 0078 2146     		mov	r1, r4
 440 007a 0020     		movs	r0, #0
 441              	.L84:
 442 007c 91F8C231 		ldrb	r3, [r1, #450]	@ zero_extendqisi2
 443 0080 6BB1     		cbz	r3, .L83
 444 0082 91F8C831 		ldrb	r3, [r1, #456]	@ zero_extendqisi2
 445 0086 91F8C921 		ldrb	r2, [r1, #457]	@ zero_extendqisi2
 446 008a 1B04     		lsls	r3, r3, #16
 447 008c 43EA0263 		orr	r3, r3, r2, lsl #24
 448 0090 91F8C621 		ldrb	r2, [r1, #454]	@ zero_extendqisi2
 449 0094 1343     		orrs	r3, r3, r2
 450 0096 91F8C721 		ldrb	r2, [r1, #455]	@ zero_extendqisi2
 451 009a 43EA0223 		orr	r3, r3, r2, lsl #8
 452              	.L83:
 453 009e 4DF82030 		str	r3, [sp, r0, lsl #2]
 454 00a2 0130     		adds	r0, r0, #1
 455 00a4 0428     		cmp	r0, #4
 456 00a6 01F11001 		add	r1, r1, #16
 457 00aa E7D1     		bne	.L84
 458 00ac 0026     		movs	r6, #0
 459              	.L87:
 460 00ae 5DF82650 		ldr	r5, [sp, r6, lsl #2]
 461 00b2 2DB1     		cbz	r5, .L108
 462 00b4 2046     		mov	r0, r4
 463 00b6 2946     		mov	r1, r5
 464 00b8 FFF7FEFF 		bl	check_fs
 465 00bc 08B9     		cbnz	r0, .L85
 466 00be 0CE0     		b	.L86
 467              	.L108:
 468 00c0 0220     		movs	r0, #2
 469              	.L85:
 470 00c2 0136     		adds	r6, r6, #1
 471 00c4 042E     		cmp	r6, #4
 472 00c6 F2D1     		bne	.L87
 473 00c8 25E1     		b	.L142
 474              	.L82:
 475 00ca 0328     		cmp	r0, #3
ARM GAS  /tmp/ccg8rFvg.s 			page 9


 476 00cc 4FF00005 		mov	r5, #0
 477 00d0 00F02481 		beq	.L113
 478 00d4 08B1     		cbz	r0, .L86
 479              	.L89:
 480 00d6 0D20     		movs	r0, #13
 481 00d8 21E1     		b	.L140
 482              	.L86:
 483 00da 227B     		ldrb	r2, [r4, #12]	@ zero_extendqisi2
 484 00dc E37A     		ldrb	r3, [r4, #11]	@ zero_extendqisi2
 485 00de 43EA0223 		orr	r3, r3, r2, lsl #8
 486 00e2 B3F5007F 		cmp	r3, #512
 487 00e6 F6D1     		bne	.L89
 488 00e8 E07D     		ldrb	r0, [r4, #23]	@ zero_extendqisi2
 489 00ea A37D     		ldrb	r3, [r4, #22]	@ zero_extendqisi2
 490 00ec 53EA0020 		orrs	r0, r3, r0, lsl #8
 491 00f0 0DD1     		bne	.L91
 492 00f2 94F82630 		ldrb	r3, [r4, #38]	@ zero_extendqisi2
 493 00f6 94F82700 		ldrb	r0, [r4, #39]	@ zero_extendqisi2
 494 00fa 1B04     		lsls	r3, r3, #16
 495 00fc 43EA0063 		orr	r3, r3, r0, lsl #24
 496 0100 94F82400 		ldrb	r0, [r4, #36]	@ zero_extendqisi2
 497 0104 0343     		orrs	r3, r3, r0
 498 0106 94F82500 		ldrb	r0, [r4, #37]	@ zero_extendqisi2
 499 010a 43EA0020 		orr	r0, r3, r0, lsl #8
 500              	.L91:
 501 010e 267C     		ldrb	r6, [r4, #16]	@ zero_extendqisi2
 502 0110 C4F81802 		str	r0, [r4, #536]
 503 0114 731E     		subs	r3, r6, #1
 504 0116 012B     		cmp	r3, #1
 505 0118 84F80362 		strb	r6, [r4, #515]
 506 011c DBD8     		bhi	.L89
 507 011e 637B     		ldrb	r3, [r4, #13]	@ zero_extendqisi2
 508 0120 84F80232 		strb	r3, [r4, #514]
 509 0124 002B     		cmp	r3, #0
 510 0126 D6D0     		beq	.L89
 511 0128 5A1E     		subs	r2, r3, #1
 512 012a 1A42     		tst	r2, r3
 513 012c D3D1     		bne	.L89
 514 012e 627C     		ldrb	r2, [r4, #17]	@ zero_extendqisi2
 515 0130 A77C     		ldrb	r7, [r4, #18]	@ zero_extendqisi2
 516 0132 42EA0727 		orr	r7, r2, r7, lsl #8
 517 0136 3A07     		lsls	r2, r7, #28
 518 0138 A4F80872 		strh	r7, [r4, #520]	@ movhi
 519 013c CBD1     		bne	.L89
 520 013e 217D     		ldrb	r1, [r4, #20]	@ zero_extendqisi2
 521 0140 E27C     		ldrb	r2, [r4, #19]	@ zero_extendqisi2
 522 0142 52EA0122 		orrs	r2, r2, r1, lsl #8
 523 0146 0DD1     		bne	.L92
 524 0148 94F82220 		ldrb	r2, [r4, #34]	@ zero_extendqisi2
 525 014c 94F82310 		ldrb	r1, [r4, #35]	@ zero_extendqisi2
 526 0150 1204     		lsls	r2, r2, #16
 527 0152 42EA0162 		orr	r2, r2, r1, lsl #24
 528 0156 94F82010 		ldrb	r1, [r4, #32]	@ zero_extendqisi2
 529 015a 0A43     		orrs	r2, r2, r1
 530 015c 94F82110 		ldrb	r1, [r4, #33]	@ zero_extendqisi2
 531 0160 42EA0122 		orr	r2, r2, r1, lsl #8
 532              	.L92:
ARM GAS  /tmp/ccg8rFvg.s 			page 10


 533 0164 94F80FE0 		ldrb	lr, [r4, #15]	@ zero_extendqisi2
 534 0168 A17B     		ldrb	r1, [r4, #14]	@ zero_extendqisi2
 535 016a 51EA0E21 		orrs	r1, r1, lr, lsl #8
 536 016e B2D0     		beq	.L89
 537 0170 06FB00FE 		mul	lr, r6, r0
 538 0174 01EB171C 		add	ip, r1, r7, lsr #4
 539 0178 F444     		add	ip, ip, lr
 540 017a 6245     		cmp	r2, ip
 541 017c ABD3     		bcc	.L89
 542 017e CCEB0202 		rsb	r2, ip, r2
 543 0182 B2FBF3F3 		udiv	r3, r2, r3
 544 0186 002B     		cmp	r3, #0
 545 0188 A5D0     		beq	.L89
 546 018a 40F6F572 		movw	r2, #4085
 547 018e 9342     		cmp	r3, r2
 548 0190 06D9     		bls	.L110
 549 0192 4FF6F576 		movw	r6, #65525
 550 0196 B342     		cmp	r3, r6
 551 0198 8CBF     		ite	hi
 552 019a 0326     		movhi	r6, #3
 553 019c 0226     		movls	r6, #2
 554 019e 00E0     		b	.L94
 555              	.L110:
 556 01a0 0126     		movs	r6, #1
 557              	.L94:
 558 01a2 6A18     		adds	r2, r5, r1
 559 01a4 0233     		adds	r3, r3, #2
 560 01a6 0CEB0501 		add	r1, ip, r5
 561 01aa 032E     		cmp	r6, #3
 562 01ac C4F81432 		str	r3, [r4, #532]
 563 01b0 C4F81C52 		str	r5, [r4, #540]
 564 01b4 C4F82022 		str	r2, [r4, #544]
 565 01b8 C4F82812 		str	r1, [r4, #552]
 566 01bc 13D1     		bne	.L95
 567 01be 002F     		cmp	r7, #0
 568 01c0 89D1     		bne	.L89
 569 01c2 94F82E20 		ldrb	r2, [r4, #46]	@ zero_extendqisi2
 570 01c6 94F82F10 		ldrb	r1, [r4, #47]	@ zero_extendqisi2
 571 01ca 1204     		lsls	r2, r2, #16
 572 01cc 42EA0162 		orr	r2, r2, r1, lsl #24
 573 01d0 94F82C10 		ldrb	r1, [r4, #44]	@ zero_extendqisi2
 574 01d4 9B00     		lsls	r3, r3, #2
 575 01d6 0A43     		orrs	r2, r2, r1
 576 01d8 94F82D10 		ldrb	r1, [r4, #45]	@ zero_extendqisi2
 577 01dc 42EA0122 		orr	r2, r2, r1, lsl #8
 578 01e0 C4F82422 		str	r2, [r4, #548]
 579 01e4 0FE0     		b	.L96
 580              	.L95:
 581 01e6 002F     		cmp	r7, #0
 582 01e8 3FF475AF 		beq	.L89
 583 01ec 7244     		add	r2, r2, lr
 584 01ee 022E     		cmp	r6, #2
 585 01f0 C4F82422 		str	r2, [r4, #548]
 586 01f4 4FEA4302 		lsl	r2, r3, #1
 587 01f8 0FBF     		iteee	eq
 588 01fa 1346     		moveq	r3, r2
 589 01fc D218     		addne	r2, r2, r3
ARM GAS  /tmp/ccg8rFvg.s 			page 11


 590 01fe 03F00103 		andne	r3, r3, #1
 591 0202 03EB5203 		addne	r3, r3, r2, lsr #1
 592              	.L96:
 593 0206 03F2FF13 		addw	r3, r3, #511
 594 020a B0EB532F 		cmp	r0, r3, lsr #9
 595 020e FFF462AF 		bcc	.L89
 596 0212 4FF0FF33 		mov	r3, #-1
 597 0216 C4F81032 		str	r3, [r4, #528]
 598 021a C4F80C32 		str	r3, [r4, #524]
 599 021e 032E     		cmp	r6, #3
 600 0220 4FF08003 		mov	r3, #128
 601 0224 84F80532 		strb	r3, [r4, #517]
 602 0228 57D1     		bne	.L99
 603 022a 94F83120 		ldrb	r2, [r4, #49]	@ zero_extendqisi2
 604 022e 94F83030 		ldrb	r3, [r4, #48]	@ zero_extendqisi2
 605 0232 43EA0223 		orr	r3, r3, r2, lsl #8
 606 0236 012B     		cmp	r3, #1
 607 0238 4FD1     		bne	.L99
 608 023a 2046     		mov	r0, r4
 609 023c 691C     		adds	r1, r5, #1
 610 023e FFF7FEFF 		bl	move_window
 611 0242 0028     		cmp	r0, #0
 612 0244 49D1     		bne	.L99
 613 0246 94F8FF21 		ldrb	r2, [r4, #511]	@ zero_extendqisi2
 614 024a 94F8FE31 		ldrb	r3, [r4, #510]	@ zero_extendqisi2
 615 024e 84F80502 		strb	r0, [r4, #517]
 616 0252 43EA0223 		orr	r3, r3, r2, lsl #8
 617 0256 4AF65522 		movw	r2, #43605
 618 025a 9342     		cmp	r3, r2
 619 025c 3DD1     		bne	.L99
 620 025e A378     		ldrb	r3, [r4, #2]	@ zero_extendqisi2
 621 0260 E278     		ldrb	r2, [r4, #3]	@ zero_extendqisi2
 622 0262 1B04     		lsls	r3, r3, #16
 623 0264 43EA0263 		orr	r3, r3, r2, lsl #24
 624 0268 2278     		ldrb	r2, [r4]	@ zero_extendqisi2
 625 026a 1343     		orrs	r3, r3, r2
 626 026c 6278     		ldrb	r2, [r4, #1]	@ zero_extendqisi2
 627 026e 43EA0223 		orr	r3, r3, r2, lsl #8
 628 0272 2D4A     		ldr	r2, .L143+4
 629 0274 9342     		cmp	r3, r2
 630 0276 30D1     		bne	.L99
 631 0278 94F8E631 		ldrb	r3, [r4, #486]	@ zero_extendqisi2
 632 027c 94F8E721 		ldrb	r2, [r4, #487]	@ zero_extendqisi2
 633 0280 1B04     		lsls	r3, r3, #16
 634 0282 43EA0263 		orr	r3, r3, r2, lsl #24
 635 0286 94F8E421 		ldrb	r2, [r4, #484]	@ zero_extendqisi2
 636 028a 1343     		orrs	r3, r3, r2
 637 028c 94F8E521 		ldrb	r2, [r4, #485]	@ zero_extendqisi2
 638 0290 43EA0223 		orr	r3, r3, r2, lsl #8
 639 0294 254A     		ldr	r2, .L143+8
 640 0296 9342     		cmp	r3, r2
 641 0298 1FD1     		bne	.L99
 642 029a 94F8EA31 		ldrb	r3, [r4, #490]	@ zero_extendqisi2
 643 029e 94F8EB21 		ldrb	r2, [r4, #491]	@ zero_extendqisi2
 644 02a2 1B04     		lsls	r3, r3, #16
 645 02a4 43EA0263 		orr	r3, r3, r2, lsl #24
 646 02a8 94F8E821 		ldrb	r2, [r4, #488]	@ zero_extendqisi2
ARM GAS  /tmp/ccg8rFvg.s 			page 12


 647 02ac 1343     		orrs	r3, r3, r2
 648 02ae 94F8E921 		ldrb	r2, [r4, #489]	@ zero_extendqisi2
 649 02b2 43EA0223 		orr	r3, r3, r2, lsl #8
 650 02b6 C4F81032 		str	r3, [r4, #528]
 651 02ba 94F8EE31 		ldrb	r3, [r4, #494]	@ zero_extendqisi2
 652 02be 94F8EF21 		ldrb	r2, [r4, #495]	@ zero_extendqisi2
 653 02c2 1B04     		lsls	r3, r3, #16
 654 02c4 43EA0263 		orr	r3, r3, r2, lsl #24
 655 02c8 94F8EC21 		ldrb	r2, [r4, #492]	@ zero_extendqisi2
 656 02cc 1343     		orrs	r3, r3, r2
 657 02ce 94F8ED21 		ldrb	r2, [r4, #493]	@ zero_extendqisi2
 658 02d2 43EA0223 		orr	r3, r3, r2, lsl #8
 659 02d6 C4F80C32 		str	r3, [r4, #524]
 660              	.L99:
 661 02da 154A     		ldr	r2, .L143+12
 662 02dc 84F80062 		strb	r6, [r4, #512]
 663 02e0 1388     		ldrh	r3, [r2]
 664 02e2 0020     		movs	r0, #0
 665 02e4 0133     		adds	r3, r3, #1
 666 02e6 9BB2     		uxth	r3, r3
 667 02e8 1380     		strh	r3, [r2]	@ movhi
 668 02ea A4F80632 		strh	r3, [r4, #518]	@ movhi
 669 02ee 114B     		ldr	r3, .L143+16
 670 02f0 1A68     		ldr	r2, [r3]
 671 02f2 A242     		cmp	r2, r4
 672 02f4 04BF     		itt	eq
 673 02f6 0022     		moveq	r2, #0
 674 02f8 1A60     		streq	r2, [r3]
 675 02fa DB68     		ldr	r3, [r3, #12]
 676 02fc A342     		cmp	r3, r4
 677 02fe 0ED1     		bne	.L140
 678 0300 0C4B     		ldr	r3, .L143+16
 679 0302 D860     		str	r0, [r3, #12]
 680 0304 0BE0     		b	.L140
 681              	.L102:
 682 0306 0B20     		movs	r0, #11
 683 0308 09E0     		b	.L140
 684              	.L103:
 685 030a 0C20     		movs	r0, #12
 686 030c 07E0     		b	.L140
 687              	.L104:
 688 030e 2846     		mov	r0, r5
 689 0310 05E0     		b	.L140
 690              	.L106:
 691 0312 0320     		movs	r0, #3
 692 0314 03E0     		b	.L140
 693              	.L142:
 694 0316 0328     		cmp	r0, #3
 695 0318 7FF4DDAE 		bne	.L89
 696              	.L113:
 697 031c 0120     		movs	r0, #1
 698              	.L140:
 699 031e 05B0     		add	sp, sp, #20
 700              		@ sp needed
 701 0320 F0BD     		pop	{r4, r5, r6, r7, pc}
 702              	.L144:
 703 0322 00BF     		.align	2
ARM GAS  /tmp/ccg8rFvg.s 			page 13


 704              	.L143:
 705 0324 00000000 		.word	.LANCHOR1
 706 0328 52526141 		.word	1096897106
 707 032c 72724161 		.word	1631679090
 708 0330 00000000 		.word	.LANCHOR2
 709 0334 00000000 		.word	.LANCHOR0
 711              		.section	.text.clust2sect,"ax",%progbits
 712              		.align	1
 713              		.global	clust2sect
 714              		.thumb
 715              		.thumb_func
 717              	clust2sect:
 718              		@ args = 0, pretend = 0, frame = 0
 719              		@ frame_needed = 0, uses_anonymous_args = 0
 720              		@ link register save eliminated.
 721 0000 D0F81432 		ldr	r3, [r0, #532]
 722 0004 0239     		subs	r1, r1, #2
 723 0006 023B     		subs	r3, r3, #2
 724 0008 9942     		cmp	r1, r3
 725 000a 3DBF     		ittte	cc
 726 000c 90F80222 		ldrbcc	r2, [r0, #514]	@ zero_extendqisi2
 727 0010 D0F82832 		ldrcc	r3, [r0, #552]
 728 0014 02FB0130 		mlacc	r0, r2, r1, r3
 729 0018 0020     		movcs	r0, #0
 730 001a 7047     		bx	lr
 732              		.section	.text.get_fat,"ax",%progbits
 733              		.align	1
 734              		.global	get_fat
 735              		.thumb
 736              		.thumb_func
 738              	get_fat:
 739              		@ args = 0, pretend = 0, frame = 0
 740              		@ frame_needed = 0, uses_anonymous_args = 0
 741 0000 0129     		cmp	r1, #1
 742 0002 F8B5     		push	{r3, r4, r5, r6, r7, lr}
 743 0004 0646     		mov	r6, r0
 744 0006 0C46     		mov	r4, r1
 745 0008 59D9     		bls	.L159
 746 000a D0F81432 		ldr	r3, [r0, #532]
 747 000e 9942     		cmp	r1, r3
 748 0010 55D2     		bcs	.L159
 749 0012 90F80032 		ldrb	r3, [r0, #512]	@ zero_extendqisi2
 750 0016 022B     		cmp	r3, #2
 751 0018 27D0     		beq	.L150
 752 001a 032B     		cmp	r3, #3
 753 001c 36D0     		beq	.L151
 754 001e 012B     		cmp	r3, #1
 755 0020 4DD1     		bne	.L159
 756 0022 01EB5105 		add	r5, r1, r1, lsr #1
 757 0026 D0F82012 		ldr	r1, [r0, #544]
 758 002a 01EB5521 		add	r1, r1, r5, lsr #9
 759 002e FFF7FEFF 		bl	move_window
 760 0032 10B1     		cbz	r0, .L153
 761              	.L154:
 762 0034 4FF0FF30 		mov	r0, #-1
 763 0038 F8BD     		pop	{r3, r4, r5, r6, r7, pc}
 764              	.L153:
ARM GAS  /tmp/ccg8rFvg.s 			page 14


 765 003a D6F82012 		ldr	r1, [r6, #544]
 766 003e 6F1C     		adds	r7, r5, #1
 767 0040 3046     		mov	r0, r6
 768 0042 C5F30805 		ubfx	r5, r5, #0, #9
 769 0046 01EB5721 		add	r1, r1, r7, lsr #9
 770 004a 755D     		ldrb	r5, [r6, r5]	@ zero_extendqisi2
 771 004c FFF7FEFF 		bl	move_window
 772 0050 0028     		cmp	r0, #0
 773 0052 EFD1     		bne	.L154
 774 0054 C7F30807 		ubfx	r7, r7, #0, #9
 775 0058 F05D     		ldrb	r0, [r6, r7]	@ zero_extendqisi2
 776 005a E307     		lsls	r3, r4, #31
 777 005c 45EA0020 		orr	r0, r5, r0, lsl #8
 778 0060 4CBF     		ite	mi
 779 0062 0009     		lsrmi	r0, r0, #4
 780 0064 C0F30B00 		ubfxpl	r0, r0, #0, #12
 781 0068 F8BD     		pop	{r3, r4, r5, r6, r7, pc}
 782              	.L150:
 783 006a D0F82012 		ldr	r1, [r0, #544]
 784 006e 01EB1421 		add	r1, r1, r4, lsr #8
 785 0072 FFF7FEFF 		bl	move_window
 786 0076 0028     		cmp	r0, #0
 787 0078 DCD1     		bne	.L154
 788 007a 6400     		lsls	r4, r4, #1
 789 007c 04F4FF74 		and	r4, r4, #510
 790 0080 335D     		ldrb	r3, [r6, r4]	@ zero_extendqisi2
 791 0082 3444     		add	r4, r4, r6
 792 0084 6078     		ldrb	r0, [r4, #1]	@ zero_extendqisi2
 793 0086 43EA0020 		orr	r0, r3, r0, lsl #8
 794 008a F8BD     		pop	{r3, r4, r5, r6, r7, pc}
 795              	.L151:
 796 008c D0F82012 		ldr	r1, [r0, #544]
 797 0090 01EBD411 		add	r1, r1, r4, lsr #7
 798 0094 FFF7FEFF 		bl	move_window
 799 0098 0028     		cmp	r0, #0
 800 009a CBD1     		bne	.L154
 801 009c A400     		lsls	r4, r4, #2
 802 009e 04F4FE74 		and	r4, r4, #508
 803 00a2 3319     		adds	r3, r6, r4
 804 00a4 D878     		ldrb	r0, [r3, #3]	@ zero_extendqisi2
 805 00a6 9A78     		ldrb	r2, [r3, #2]	@ zero_extendqisi2
 806 00a8 0006     		lsls	r0, r0, #24
 807 00aa 5B78     		ldrb	r3, [r3, #1]	@ zero_extendqisi2
 808 00ac 40EA0240 		orr	r0, r0, r2, lsl #16
 809 00b0 40EA0320 		orr	r0, r0, r3, lsl #8
 810 00b4 335D     		ldrb	r3, [r6, r4]	@ zero_extendqisi2
 811 00b6 1843     		orrs	r0, r0, r3
 812 00b8 20F07040 		bic	r0, r0, #-268435456
 813 00bc F8BD     		pop	{r3, r4, r5, r6, r7, pc}
 814              	.L159:
 815 00be 0120     		movs	r0, #1
 816 00c0 F8BD     		pop	{r3, r4, r5, r6, r7, pc}
 818              		.section	.text.dir_sdi.constprop.10,"ax",%progbits
 819              		.align	1
 820              		.thumb
 821              		.thumb_func
 823              	dir_sdi.constprop.10:
ARM GAS  /tmp/ccg8rFvg.s 			page 15


 824              		@ args = 0, pretend = 0, frame = 0
 825              		@ frame_needed = 0, uses_anonymous_args = 0
 826 0000 70B5     		push	{r4, r5, r6, lr}
 827 0002 8468     		ldr	r4, [r0, #8]
 828 0004 0023     		movs	r3, #0
 829 0006 012C     		cmp	r4, #1
 830 0008 0546     		mov	r5, r0
 831 000a C380     		strh	r3, [r0, #6]	@ movhi
 832 000c 01D1     		bne	.L161
 833              	.L163:
 834 000e 0220     		movs	r0, #2
 835 0010 70BD     		pop	{r4, r5, r6, pc}
 836              	.L161:
 837 0012 0668     		ldr	r6, [r0]
 838 0014 D6F81432 		ldr	r3, [r6, #532]
 839 0018 9C42     		cmp	r4, r3
 840 001a F8D2     		bcs	.L163
 841 001c 74B9     		cbnz	r4, .L164
 842 001e 96F80032 		ldrb	r3, [r6, #512]	@ zero_extendqisi2
 843 0022 032B     		cmp	r3, #3
 844 0024 02D1     		bne	.L165
 845 0026 D6F82432 		ldr	r3, [r6, #548]
 846 002a 33B9     		cbnz	r3, .L169
 847              	.L165:
 848 002c B6F80832 		ldrh	r3, [r6, #520]
 849 0030 002B     		cmp	r3, #0
 850 0032 ECD0     		beq	.L163
 851 0034 D6F82402 		ldr	r0, [r6, #548]
 852 0038 16E0     		b	.L166
 853              	.L169:
 854 003a 1C46     		mov	r4, r3
 855              	.L164:
 856 003c 96F80232 		ldrb	r3, [r6, #514]	@ zero_extendqisi2
 857 0040 73B9     		cbnz	r3, .L167
 858              	.L168:
 859 0042 2146     		mov	r1, r4
 860 0044 2868     		ldr	r0, [r5]
 861 0046 FFF7FEFF 		bl	get_fat
 862 004a 431C     		adds	r3, r0, #1
 863 004c 0446     		mov	r4, r0
 864 004e 12D0     		beq	.L170
 865 0050 0128     		cmp	r0, #1
 866 0052 DCD9     		bls	.L163
 867 0054 2B68     		ldr	r3, [r5]
 868 0056 D3F81432 		ldr	r3, [r3, #532]
 869 005a 9842     		cmp	r0, r3
 870 005c F1D3     		bcc	.L168
 871 005e D6E7     		b	.L163
 872              	.L167:
 873 0060 3046     		mov	r0, r6
 874 0062 2146     		mov	r1, r4
 875 0064 FFF7FEFF 		bl	clust2sect
 876              	.L166:
 877 0068 EC60     		str	r4, [r5, #12]
 878 006a 0028     		cmp	r0, #0
 879 006c CFD0     		beq	.L163
 880 006e 2861     		str	r0, [r5, #16]
ARM GAS  /tmp/ccg8rFvg.s 			page 16


 881 0070 6E61     		str	r6, [r5, #20]
 882 0072 0020     		movs	r0, #0
 883 0074 70BD     		pop	{r4, r5, r6, pc}
 884              	.L170:
 885 0076 0120     		movs	r0, #1
 886 0078 70BD     		pop	{r4, r5, r6, pc}
 888              		.section	.text.put_fat,"ax",%progbits
 889              		.align	1
 890              		.global	put_fat
 891              		.thumb
 892              		.thumb_func
 894              	put_fat:
 895              		@ args = 0, pretend = 0, frame = 0
 896              		@ frame_needed = 0, uses_anonymous_args = 0
 897 0000 0129     		cmp	r1, #1
 898 0002 2DE9F041 		push	{r4, r5, r6, r7, r8, lr}
 899 0006 0646     		mov	r6, r0
 900 0008 0C46     		mov	r4, r1
 901 000a 1546     		mov	r5, r2
 902 000c 6DD9     		bls	.L189
 903 000e D0F81432 		ldr	r3, [r0, #532]
 904 0012 9942     		cmp	r1, r3
 905 0014 69D2     		bcs	.L189
 906 0016 90F80032 		ldrb	r3, [r0, #512]	@ zero_extendqisi2
 907 001a 022B     		cmp	r3, #2
 908 001c 38D0     		beq	.L179
 909 001e 032B     		cmp	r3, #3
 910 0020 46D0     		beq	.L180
 911 0022 012B     		cmp	r3, #1
 912 0024 61D1     		bne	.L189
 913 0026 01EB5107 		add	r7, r1, r1, lsr #1
 914 002a D0F82012 		ldr	r1, [r0, #544]
 915 002e 01EB5721 		add	r1, r1, r7, lsr #9
 916 0032 FFF7FEFF 		bl	move_window
 917 0036 0028     		cmp	r0, #0
 918 0038 58D1     		bne	.L178
 919 003a 14F00104 		ands	r4, r4, #1
 920 003e 07F10108 		add	r8, r7, #1
 921 0042 C7F30807 		ubfx	r7, r7, #0, #9
 922 0046 18BF     		it	ne
 923 0048 F25D     		ldrbne	r2, [r6, r7]	@ zero_extendqisi2
 924 004a EBB2     		uxtb	r3, r5
 925 004c 1EBF     		ittt	ne
 926 004e 02F00F02 		andne	r2, r2, #15
 927 0052 42EA0313 		orrne	r3, r2, r3, lsl #4
 928 0056 DBB2     		uxtbne	r3, r3
 929 0058 D6F82012 		ldr	r1, [r6, #544]
 930 005c F355     		strb	r3, [r6, r7]
 931 005e 0123     		movs	r3, #1
 932 0060 86F80432 		strb	r3, [r6, #516]
 933 0064 3046     		mov	r0, r6
 934 0066 01EB5821 		add	r1, r1, r8, lsr #9
 935 006a FFF7FEFF 		bl	move_window
 936 006e E8BB     		cbnz	r0, .L178
 937 0070 C8F30808 		ubfx	r8, r8, #0, #9
 938 0074 14B1     		cbz	r4, .L184
 939 0076 C5F30712 		ubfx	r2, r5, #4, #8
ARM GAS  /tmp/ccg8rFvg.s 			page 17


 940 007a 06E0     		b	.L185
 941              	.L184:
 942 007c 16F80820 		ldrb	r2, [r6, r8]	@ zero_extendqisi2
 943 0080 22F00F03 		bic	r3, r2, #15
 944 0084 C5F30322 		ubfx	r2, r5, #8, #4
 945 0088 1A43     		orrs	r2, r2, r3
 946              	.L185:
 947 008a 06F80820 		strb	r2, [r6, r8]
 948 008e 27E0     		b	.L190
 949              	.L179:
 950 0090 D0F82012 		ldr	r1, [r0, #544]
 951 0094 01EB1421 		add	r1, r1, r4, lsr #8
 952 0098 FFF7FEFF 		bl	move_window
 953 009c 30BB     		cbnz	r0, .L178
 954 009e 6400     		lsls	r4, r4, #1
 955 00a0 04F4FF74 		and	r4, r4, #510
 956 00a4 3555     		strb	r5, [r6, r4]
 957 00a6 C5F30722 		ubfx	r2, r5, #8, #8
 958 00aa 3444     		add	r4, r4, r6
 959 00ac 6270     		strb	r2, [r4, #1]
 960 00ae 17E0     		b	.L190
 961              	.L180:
 962 00b0 D0F82012 		ldr	r1, [r0, #544]
 963 00b4 01EBD411 		add	r1, r1, r4, lsr #7
 964 00b8 FFF7FEFF 		bl	move_window
 965 00bc B0B9     		cbnz	r0, .L178
 966 00be A400     		lsls	r4, r4, #2
 967 00c0 04F4FE74 		and	r4, r4, #508
 968 00c4 3319     		adds	r3, r6, r4
 969 00c6 DA78     		ldrb	r2, [r3, #3]	@ zero_extendqisi2
 970 00c8 1206     		lsls	r2, r2, #24
 971 00ca 02F07042 		and	r2, r2, #-268435456
 972 00ce 2A43     		orrs	r2, r2, r5
 973 00d0 C2F30721 		ubfx	r1, r2, #8, #8
 974 00d4 3255     		strb	r2, [r6, r4]
 975 00d6 5970     		strb	r1, [r3, #1]
 976 00d8 110C     		lsrs	r1, r2, #16
 977 00da 120E     		lsrs	r2, r2, #24
 978 00dc 9970     		strb	r1, [r3, #2]
 979 00de DA70     		strb	r2, [r3, #3]
 980              	.L190:
 981 00e0 0123     		movs	r3, #1
 982 00e2 86F80432 		strb	r3, [r6, #516]
 983 00e6 BDE8F081 		pop	{r4, r5, r6, r7, r8, pc}
 984              	.L189:
 985 00ea 0220     		movs	r0, #2
 986              	.L178:
 987 00ec BDE8F081 		pop	{r4, r5, r6, r7, r8, pc}
 989              		.section	.text.create_chain,"ax",%progbits
 990              		.align	1
 991              		.thumb
 992              		.thumb_func
 994              	create_chain:
 995              		@ args = 0, pretend = 0, frame = 0
 996              		@ frame_needed = 0, uses_anonymous_args = 0
 997 0000 F8B5     		push	{r3, r4, r5, r6, r7, lr}
 998 0002 0546     		mov	r5, r0
ARM GAS  /tmp/ccg8rFvg.s 			page 18


 999 0004 0F46     		mov	r7, r1
 1000 0006 41B9     		cbnz	r1, .L192
 1001 0008 D0F80C62 		ldr	r6, [r0, #524]
 1002 000c A6B1     		cbz	r6, .L207
 1003 000e D0F81432 		ldr	r3, [r0, #532]
 1004 0012 9E42     		cmp	r6, r3
 1005 0014 28BF     		it	cs
 1006 0016 0126     		movcs	r6, #1
 1007 0018 0FE0     		b	.L193
 1008              	.L192:
 1009 001a FFF7FEFF 		bl	get_fat
 1010 001e 0128     		cmp	r0, #1
 1011 0020 46D9     		bls	.L208
 1012 0022 441C     		adds	r4, r0, #1
 1013 0024 02D1     		bne	.L195
 1014              	.L206:
 1015 0026 4FF0FF30 		mov	r0, #-1
 1016 002a F8BD     		pop	{r3, r4, r5, r6, r7, pc}
 1017              	.L195:
 1018 002c D5F81432 		ldr	r3, [r5, #532]
 1019 0030 9842     		cmp	r0, r3
 1020 0032 3ED3     		bcc	.L194
 1021 0034 3E46     		mov	r6, r7
 1022 0036 00E0     		b	.L193
 1023              	.L207:
 1024 0038 0126     		movs	r6, #1
 1025              	.L193:
 1026 003a 3446     		mov	r4, r6
 1027              	.L201:
 1028 003c D5F81432 		ldr	r3, [r5, #532]
 1029 0040 0134     		adds	r4, r4, #1
 1030 0042 9C42     		cmp	r4, r3
 1031 0044 04D3     		bcc	.L196
 1032 0046 012E     		cmp	r6, #1
 1033 0048 01D8     		bhi	.L210
 1034              	.L200:
 1035 004a 0020     		movs	r0, #0
 1036 004c F8BD     		pop	{r3, r4, r5, r6, r7, pc}
 1037              	.L210:
 1038 004e 0224     		movs	r4, #2
 1039              	.L196:
 1040 0050 2846     		mov	r0, r5
 1041 0052 2146     		mov	r1, r4
 1042 0054 FFF7FEFF 		bl	get_fat
 1043 0058 30B1     		cbz	r0, .L197
 1044 005a 411C     		adds	r1, r0, #1
 1045 005c 29D0     		beq	.L194
 1046 005e 0128     		cmp	r0, #1
 1047 0060 27D0     		beq	.L194
 1048 0062 B442     		cmp	r4, r6
 1049 0064 EAD1     		bne	.L201
 1050 0066 F0E7     		b	.L200
 1051              	.L197:
 1052 0068 2846     		mov	r0, r5
 1053 006a 2146     		mov	r1, r4
 1054 006c 6FF07042 		mvn	r2, #-268435456
 1055 0070 FFF7FEFF 		bl	put_fat
ARM GAS  /tmp/ccg8rFvg.s 			page 19


 1056 0074 D0B9     		cbnz	r0, .L202
 1057 0076 7FB9     		cbnz	r7, .L203
 1058              	.L205:
 1059 0078 D5F81032 		ldr	r3, [r5, #528]
 1060 007c C5F80C42 		str	r4, [r5, #524]
 1061 0080 5A1C     		adds	r2, r3, #1
 1062 0082 11D0     		beq	.L220
 1063 0084 013B     		subs	r3, r3, #1
 1064 0086 C5F81032 		str	r3, [r5, #528]
 1065 008a 95F80532 		ldrb	r3, [r5, #517]	@ zero_extendqisi2
 1066 008e 43F00103 		orr	r3, r3, #1
 1067 0092 85F80532 		strb	r3, [r5, #517]
 1068 0096 07E0     		b	.L220
 1069              	.L203:
 1070 0098 2846     		mov	r0, r5
 1071 009a 3946     		mov	r1, r7
 1072 009c 2246     		mov	r2, r4
 1073 009e FFF7FEFF 		bl	put_fat
 1074 00a2 0028     		cmp	r0, #0
 1075 00a4 E8D0     		beq	.L205
 1076 00a6 01E0     		b	.L202
 1077              	.L220:
 1078 00a8 2046     		mov	r0, r4
 1079 00aa F8BD     		pop	{r3, r4, r5, r6, r7, pc}
 1080              	.L202:
 1081 00ac 0128     		cmp	r0, #1
 1082 00ae BAD0     		beq	.L206
 1083              	.L208:
 1084 00b0 0120     		movs	r0, #1
 1085              	.L194:
 1086 00b2 F8BD     		pop	{r3, r4, r5, r6, r7, pc}
 1088              		.section	.text.dir_next,"ax",%progbits
 1089              		.align	1
 1090              		.thumb
 1091              		.thumb_func
 1093              	dir_next:
 1094              		@ args = 0, pretend = 0, frame = 0
 1095              		@ frame_needed = 0, uses_anonymous_args = 0
 1096 0000 2DE9F041 		push	{r4, r5, r6, r7, r8, lr}
 1097 0004 C688     		ldrh	r6, [r0, #6]
 1098 0006 0446     		mov	r4, r0
 1099 0008 0136     		adds	r6, r6, #1
 1100 000a B3B2     		uxth	r3, r6
 1101 000c 0F46     		mov	r7, r1
 1102 000e 13B9     		cbnz	r3, .L222
 1103              	.L224:
 1104 0010 0420     		movs	r0, #4
 1105 0012 BDE8F081 		pop	{r4, r5, r6, r7, r8, pc}
 1106              	.L222:
 1107 0016 0369     		ldr	r3, [r0, #16]
 1108 0018 002B     		cmp	r3, #0
 1109 001a F9D0     		beq	.L224
 1110 001c 16F00F08 		ands	r8, r6, #15
 1111 0020 63D1     		bne	.L226
 1112 0022 C168     		ldr	r1, [r0, #12]
 1113 0024 0133     		adds	r3, r3, #1
 1114 0026 0361     		str	r3, [r0, #16]
ARM GAS  /tmp/ccg8rFvg.s 			page 20


 1115 0028 0068     		ldr	r0, [r0]
 1116 002a 21B9     		cbnz	r1, .L227
 1117 002c B0F80832 		ldrh	r3, [r0, #520]
 1118 0030 9E42     		cmp	r6, r3
 1119 0032 EDD2     		bcs	.L224
 1120 0034 59E0     		b	.L226
 1121              	.L227:
 1122 0036 90F80232 		ldrb	r3, [r0, #514]	@ zero_extendqisi2
 1123 003a 013B     		subs	r3, r3, #1
 1124 003c 13EA1613 		ands	r3, r3, r6, lsr #4
 1125 0040 53D1     		bne	.L226
 1126 0042 FFF7FEFF 		bl	get_fat
 1127 0046 0128     		cmp	r0, #1
 1128 0048 0546     		mov	r5, r0
 1129 004a 02D8     		bhi	.L229
 1130              	.L232:
 1131 004c 0220     		movs	r0, #2
 1132 004e BDE8F081 		pop	{r4, r5, r6, r7, r8, pc}
 1133              	.L229:
 1134 0052 421C     		adds	r2, r0, #1
 1135 0054 02D1     		bne	.L230
 1136              	.L233:
 1137 0056 0120     		movs	r0, #1
 1138 0058 BDE8F081 		pop	{r4, r5, r6, r7, r8, pc}
 1139              	.L230:
 1140 005c 2068     		ldr	r0, [r4]
 1141 005e D0F81432 		ldr	r3, [r0, #532]
 1142 0062 9D42     		cmp	r5, r3
 1143 0064 3BD3     		bcc	.L231
 1144 0066 002F     		cmp	r7, #0
 1145 0068 D2D0     		beq	.L224
 1146 006a E168     		ldr	r1, [r4, #12]
 1147 006c FFF7FEFF 		bl	create_chain
 1148 0070 0546     		mov	r5, r0
 1149 0072 0028     		cmp	r0, #0
 1150 0074 41D0     		beq	.L238
 1151 0076 0128     		cmp	r0, #1
 1152 0078 E8D0     		beq	.L232
 1153 007a 431C     		adds	r3, r0, #1
 1154 007c EBD0     		beq	.L233
 1155 007e 2068     		ldr	r0, [r4]
 1156 0080 FFF7FEFF 		bl	sync_window
 1157 0084 0028     		cmp	r0, #0
 1158 0086 E6D1     		bne	.L233
 1159 0088 2368     		ldr	r3, [r4]
 1160 008a 03F50072 		add	r2, r3, #512
 1161              	.L234:
 1162 008e 9342     		cmp	r3, r2
 1163 0090 03D0     		beq	.L251
 1164 0092 0021     		movs	r1, #0
 1165 0094 03F8011B 		strb	r1, [r3], #1
 1166 0098 F9E7     		b	.L234
 1167              	.L251:
 1168 009a 2768     		ldr	r7, [r4]
 1169 009c 2946     		mov	r1, r5
 1170 009e 3846     		mov	r0, r7
 1171 00a0 FFF7FEFF 		bl	clust2sect
ARM GAS  /tmp/ccg8rFvg.s 			page 21


 1172 00a4 C7F82C02 		str	r0, [r7, #556]
 1173 00a8 0027     		movs	r7, #0
 1174              	.L236:
 1175 00aa 2368     		ldr	r3, [r4]
 1176 00ac 93F80222 		ldrb	r2, [r3, #514]	@ zero_extendqisi2
 1177 00b0 9742     		cmp	r7, r2
 1178 00b2 0FD2     		bcs	.L252
 1179 00b4 0122     		movs	r2, #1
 1180 00b6 83F80422 		strb	r2, [r3, #516]
 1181 00ba 2068     		ldr	r0, [r4]
 1182 00bc FFF7FEFF 		bl	sync_window
 1183 00c0 0028     		cmp	r0, #0
 1184 00c2 C8D1     		bne	.L233
 1185 00c4 2268     		ldr	r2, [r4]
 1186 00c6 0137     		adds	r7, r7, #1
 1187 00c8 D2F82C32 		ldr	r3, [r2, #556]
 1188 00cc 0133     		adds	r3, r3, #1
 1189 00ce C2F82C32 		str	r3, [r2, #556]
 1190 00d2 EAE7     		b	.L236
 1191              	.L252:
 1192 00d4 D3F82C22 		ldr	r2, [r3, #556]
 1193 00d8 D71B     		subs	r7, r2, r7
 1194 00da C3F82C72 		str	r7, [r3, #556]
 1195              	.L231:
 1196 00de E560     		str	r5, [r4, #12]
 1197 00e0 2068     		ldr	r0, [r4]
 1198 00e2 2946     		mov	r1, r5
 1199 00e4 FFF7FEFF 		bl	clust2sect
 1200 00e8 2061     		str	r0, [r4, #16]
 1201              	.L226:
 1202 00ea 2368     		ldr	r3, [r4]
 1203 00ec E680     		strh	r6, [r4, #6]	@ movhi
 1204 00ee 03EB4813 		add	r3, r3, r8, lsl #5
 1205 00f2 6361     		str	r3, [r4, #20]
 1206 00f4 0020     		movs	r0, #0
 1207 00f6 BDE8F081 		pop	{r4, r5, r6, r7, r8, pc}
 1208              	.L238:
 1209 00fa 0720     		movs	r0, #7
 1210 00fc BDE8F081 		pop	{r4, r5, r6, r7, r8, pc}
 1212              		.section	.text.follow_path,"ax",%progbits
 1213              		.align	1
 1214              		.thumb
 1215              		.thumb_func
 1217              	follow_path:
 1218              		@ args = 0, pretend = 0, frame = 0
 1219              		@ frame_needed = 0, uses_anonymous_args = 0
 1220 0000 2DE9F041 		push	{r4, r5, r6, r7, r8, lr}
 1221 0004 0B78     		ldrb	r3, [r1]	@ zero_extendqisi2
 1222 0006 0446     		mov	r4, r0
 1223 0008 2F2B     		cmp	r3, #47
 1224 000a 0D46     		mov	r5, r1
 1225 000c 01D0     		beq	.L254
 1226 000e 5C2B     		cmp	r3, #92
 1227 0010 00D1     		bne	.L255
 1228              	.L254:
 1229 0012 0135     		adds	r5, r5, #1
 1230              	.L255:
ARM GAS  /tmp/ccg8rFvg.s 			page 22


 1231 0014 0026     		movs	r6, #0
 1232 0016 A660     		str	r6, [r4, #8]
 1233 0018 2B78     		ldrb	r3, [r5]	@ zero_extendqisi2
 1234 001a 1F2B     		cmp	r3, #31
 1235 001c 44D8     		bhi	.L259
 1236 001e 2046     		mov	r0, r4
 1237 0020 FFF7FEFF 		bl	dir_sdi.constprop.10
 1238 0024 6661     		str	r6, [r4, #20]
 1239 0026 BDE8F081 		pop	{r4, r5, r6, r7, r8, pc}
 1240              	.L326:
 1241 002a 0021     		movs	r1, #0
 1242 002c 0D46     		mov	r5, r1
 1243 002e 0A46     		mov	r2, r1
 1244 0030 07F1FF3E 		add	lr, r7, #-1
 1245 0034 0826     		movs	r6, #8
 1246              	.L263:
 1247 0036 1EF8013F 		ldrb	r3, [lr, #1]!	@ zero_extendqisi2
 1248 003a 0135     		adds	r5, r5, #1
 1249 003c 202B     		cmp	r3, #32
 1250 003e 45D8     		bhi	.L323
 1251              	.L264:
 1252 0040 212B     		cmp	r3, #33
 1253 0042 3D44     		add	r5, r5, r7
 1254 0044 34BF     		ite	cc
 1255 0046 0423     		movcc	r3, #4
 1256 0048 0023     		movcs	r3, #0
 1257 004a 0029     		cmp	r1, #0
 1258 004c 00F08780 		beq	.L296
 1259 0050 0178     		ldrb	r1, [r0]	@ zero_extendqisi2
 1260 0052 E529     		cmp	r1, #229
 1261 0054 04BF     		itt	eq
 1262 0056 0521     		moveq	r1, #5
 1263 0058 0170     		strbeq	r1, [r0]
 1264 005a 082E     		cmp	r6, #8
 1265 005c 04BF     		itt	eq
 1266 005e 9200     		lsleq	r2, r2, #2
 1267 0060 D2B2     		uxtbeq	r2, r2
 1268 0062 02F00301 		and	r1, r2, #3
 1269 0066 0129     		cmp	r1, #1
 1270 0068 02F00C02 		and	r2, r2, #12
 1271 006c 08BF     		it	eq
 1272 006e 43F01003 		orreq	r3, r3, #16
 1273 0072 042A     		cmp	r2, #4
 1274 0074 08BF     		it	eq
 1275 0076 43F00803 		orreq	r3, r3, #8
 1276 007a C372     		strb	r3, [r0, #11]
 1277 007c 2046     		mov	r0, r4
 1278 007e FFF7FEFF 		bl	dir_sdi.constprop.10
 1279              	.L322:
 1280 0082 0028     		cmp	r0, #0
 1281 0084 3FD0     		beq	.L324
 1282              	.L277:
 1283 0086 A369     		ldr	r3, [r4, #24]
 1284 0088 DB7A     		ldrb	r3, [r3, #11]	@ zero_extendqisi2
 1285 008a 0028     		cmp	r0, #0
 1286 008c 5BD1     		bne	.L325
 1287 008e 5A07     		lsls	r2, r3, #29
ARM GAS  /tmp/ccg8rFvg.s 			page 23


 1288 0090 00F18380 		bmi	.L304
 1289 0094 6169     		ldr	r1, [r4, #20]
 1290 0096 CB7A     		ldrb	r3, [r1, #11]	@ zero_extendqisi2
 1291 0098 DB06     		lsls	r3, r3, #27
 1292 009a 5DD5     		bpl	.L295
 1293 009c 2368     		ldr	r3, [r4]
 1294 009e 93F80002 		ldrb	r0, [r3, #512]	@ zero_extendqisi2
 1295 00a2 FFF7FEFF 		bl	ld_clust.isra.0
 1296 00a6 A060     		str	r0, [r4, #8]
 1297              	.L259:
 1298 00a8 2B78     		ldrb	r3, [r5]	@ zero_extendqisi2
 1299 00aa 2F46     		mov	r7, r5
 1300 00ac 2F2B     		cmp	r3, #47
 1301 00ae 05F10105 		add	r5, r5, #1
 1302 00b2 F9D0     		beq	.L259
 1303 00b4 5C2B     		cmp	r3, #92
 1304 00b6 F7D0     		beq	.L259
 1305 00b8 A069     		ldr	r0, [r4, #24]
 1306 00ba 0346     		mov	r3, r0
 1307 00bc 00F10B02 		add	r2, r0, #11
 1308              	.L261:
 1309 00c0 9342     		cmp	r3, r2
 1310 00c2 B2D0     		beq	.L326
 1311 00c4 2021     		movs	r1, #32
 1312 00c6 03F8011B 		strb	r1, [r3], #1
 1313 00ca F9E7     		b	.L261
 1314              	.L323:
 1315 00cc 2F2B     		cmp	r3, #47
 1316 00ce B7D0     		beq	.L264
 1317 00d0 5C2B     		cmp	r3, #92
 1318 00d2 B5D0     		beq	.L264
 1319 00d4 2E2B     		cmp	r3, #46
 1320 00d6 45D0     		beq	.L265
 1321 00d8 B142     		cmp	r1, r6
 1322 00da 40D2     		bcs	.L296
 1323 00dc 13F0800F 		tst	r3, #128
 1324 00e0 1EBF     		ittt	ne
 1325 00e2 DFF8BCC0 		ldrne	ip, .L328
 1326 00e6 803B     		subne	r3, r3, #128
 1327 00e8 1CF80330 		ldrbne	r3, [ip, r3]	@ zero_extendqisi2
 1328 00ec DFF8B480 		ldr	r8, .L328+4
 1329 00f0 18BF     		it	ne
 1330 00f2 42F00302 		orrne	r2, r2, #3
 1331              	.L270:
 1332 00f6 18F801CF 		ldrb	ip, [r8, #1]!	@ zero_extendqisi2
 1333 00fa BCF1000F 		cmp	ip, #0
 1334 00fe 38D0     		beq	.L269
 1335 0100 9C45     		cmp	ip, r3
 1336 0102 F8D1     		bne	.L270
 1337 0104 2BE0     		b	.L296
 1338              	.L324:
 1339 0106 2068     		ldr	r0, [r4]
 1340 0108 2169     		ldr	r1, [r4, #16]
 1341 010a FFF7FEFF 		bl	move_window
 1342 010e 0028     		cmp	r0, #0
 1343 0110 B9D1     		bne	.L277
 1344 0112 6369     		ldr	r3, [r4, #20]
ARM GAS  /tmp/ccg8rFvg.s 			page 24


 1345 0114 1A78     		ldrb	r2, [r3]	@ zero_extendqisi2
 1346 0116 92B1     		cbz	r2, .L290
 1347 0118 DA7A     		ldrb	r2, [r3, #11]	@ zero_extendqisi2
 1348 011a 1107     		lsls	r1, r2, #28
 1349 011c 0AD4     		bmi	.L278
 1350 011e A269     		ldr	r2, [r4, #24]
 1351 0120 03F10B06 		add	r6, r3, #11
 1352              	.L279:
 1353 0124 B342     		cmp	r3, r6
 1354 0126 0CD0     		beq	.L291
 1355 0128 13F8010B 		ldrb	r0, [r3], #1	@ zero_extendqisi2
 1356 012c 12F8011B 		ldrb	r1, [r2], #1	@ zero_extendqisi2
 1357 0130 8842     		cmp	r0, r1
 1358 0132 F7D0     		beq	.L279
 1359              	.L278:
 1360 0134 2046     		mov	r0, r4
 1361 0136 0021     		movs	r1, #0
 1362 0138 FFF7FEFF 		bl	dir_next
 1363 013c A1E7     		b	.L322
 1364              	.L290:
 1365 013e 0420     		movs	r0, #4
 1366 0140 A1E7     		b	.L277
 1367              	.L291:
 1368 0142 0020     		movs	r0, #0
 1369 0144 9FE7     		b	.L277
 1370              	.L325:
 1371 0146 0428     		cmp	r0, #4
 1372 0148 27D1     		bne	.L304
 1373 014a 13F0040F 		tst	r3, #4
 1374 014e 14BF     		ite	ne
 1375 0150 0420     		movne	r0, #4
 1376 0152 0520     		moveq	r0, #5
 1377 0154 BDE8F081 		pop	{r4, r5, r6, r7, r8, pc}
 1378              	.L295:
 1379 0158 0520     		movs	r0, #5
 1380 015a BDE8F081 		pop	{r4, r5, r6, r7, r8, pc}
 1381              	.L296:
 1382 015e 0620     		movs	r0, #6
 1383 0160 BDE8F081 		pop	{r4, r5, r6, r7, r8, pc}
 1384              	.L265:
 1385 0164 082E     		cmp	r6, #8
 1386 0166 FAD1     		bne	.L296
 1387 0168 9200     		lsls	r2, r2, #2
 1388 016a 3146     		mov	r1, r6
 1389 016c D2B2     		uxtb	r2, r2
 1390 016e 0B26     		movs	r6, #11
 1391 0170 61E7     		b	.L263
 1392              	.L269:
 1393 0172 A3F1410C 		sub	ip, r3, #65
 1394 0176 BCF1190F 		cmp	ip, #25
 1395 017a 02D8     		bhi	.L327
 1396 017c 42F00202 		orr	r2, r2, #2
 1397 0180 08E0     		b	.L271
 1398              	.L327:
 1399 0182 A3F1610C 		sub	ip, r3, #97
 1400 0186 BCF1190F 		cmp	ip, #25
 1401 018a 9EBF     		ittt	ls
ARM GAS  /tmp/ccg8rFvg.s 			page 25


 1402 018c 203B     		subls	r3, r3, #32
 1403 018e 42F00102 		orrls	r2, r2, #1
 1404 0192 DBB2     		uxtbls	r3, r3
 1405              	.L271:
 1406 0194 4354     		strb	r3, [r0, r1]
 1407 0196 0131     		adds	r1, r1, #1
 1408 0198 4DE7     		b	.L263
 1409              	.L304:
 1410 019a BDE8F081 		pop	{r4, r5, r6, r7, r8, pc}
 1411              	.L329:
 1412 019e 00BF     		.align	2
 1413              	.L328:
 1414 01a0 00000000 		.word	.LANCHOR3
 1415 01a4 FFFFFFFF 		.word	.LC0-1
 1417              		.section	.text.f_mount,"ax",%progbits
 1418              		.align	1
 1419              		.global	f_mount
 1420              		.thumb
 1421              		.thumb_func
 1423              	f_mount:
 1424              		@ args = 0, pretend = 0, frame = 16
 1425              		@ frame_needed = 0, uses_anonymous_args = 0
 1426 0000 7FB5     		push	{r0, r1, r2, r3, r4, r5, r6, lr}
 1427 0002 0190     		str	r0, [sp, #4]
 1428 0004 04A8     		add	r0, sp, #16
 1429 0006 40F8041D 		str	r1, [r0, #-4]!
 1430 000a 0091     		str	r1, [sp]
 1431 000c 1646     		mov	r6, r2
 1432 000e FFF7FEFF 		bl	get_ldnumber
 1433 0012 051E     		subs	r5, r0, #0
 1434 0014 24DB     		blt	.L336
 1435 0016 154B     		ldr	r3, .L345
 1436 0018 53F82540 		ldr	r4, [r3, r5, lsl #2]
 1437 001c 1946     		mov	r1, r3
 1438 001e 7CB1     		cbz	r4, .L332
 1439 0020 134B     		ldr	r3, .L345+4
 1440 0022 1A68     		ldr	r2, [r3]
 1441 0024 A242     		cmp	r2, r4
 1442 0026 04BF     		itt	eq
 1443 0028 0022     		moveq	r2, #0
 1444 002a 1A60     		streq	r2, [r3]
 1445 002c DB68     		ldr	r3, [r3, #12]
 1446 002e A342     		cmp	r3, r4
 1447 0030 08BF     		it	eq
 1448 0032 0F4A     		ldreq	r2, .L345+4
 1449 0034 4FF00003 		mov	r3, #0
 1450 0038 08BF     		it	eq
 1451 003a D360     		streq	r3, [r2, #12]
 1452 003c 84F80032 		strb	r3, [r4, #512]
 1453              	.L332:
 1454 0040 0198     		ldr	r0, [sp, #4]
 1455 0042 10B1     		cbz	r0, .L335
 1456 0044 0023     		movs	r3, #0
 1457 0046 80F80032 		strb	r3, [r0, #512]
 1458              	.L335:
 1459 004a 41F82500 		str	r0, [r1, r5, lsl #2]
 1460 004e 50B1     		cbz	r0, .L331
ARM GAS  /tmp/ccg8rFvg.s 			page 26


 1461 0050 012E     		cmp	r6, #1
 1462 0052 07D1     		bne	.L338
 1463 0054 01A8     		add	r0, sp, #4
 1464 0056 6946     		mov	r1, sp
 1465 0058 0022     		movs	r2, #0
 1466 005a FFF7FEFF 		bl	find_volume
 1467 005e 02E0     		b	.L331
 1468              	.L336:
 1469 0060 0B20     		movs	r0, #11
 1470 0062 00E0     		b	.L331
 1471              	.L338:
 1472 0064 0020     		movs	r0, #0
 1473              	.L331:
 1474 0066 04B0     		add	sp, sp, #16
 1475              		@ sp needed
 1476 0068 70BD     		pop	{r4, r5, r6, pc}
 1477              	.L346:
 1478 006a 00BF     		.align	2
 1479              	.L345:
 1480 006c 00000000 		.word	.LANCHOR1
 1481 0070 00000000 		.word	.LANCHOR0
 1483              		.section	.text.f_open,"ax",%progbits
 1484              		.align	1
 1485              		.global	f_open
 1486              		.thumb
 1487              		.thumb_func
 1489              	f_open:
 1490              		@ args = 0, pretend = 0, frame = 56
 1491              		@ frame_needed = 0, uses_anonymous_args = 0
 1492 0000 2DE9F04F 		push	{r4, r5, r6, r7, r8, r9, r10, fp, lr}
 1493 0004 8FB0     		sub	sp, sp, #60
 1494 0006 0191     		str	r1, [sp, #4]
 1495 0008 1746     		mov	r7, r2
 1496 000a 0646     		mov	r6, r0
 1497 000c 0028     		cmp	r0, #0
 1498 000e 00F0D980 		beq	.L380
 1499 0012 0023     		movs	r3, #0
 1500 0014 0360     		str	r3, [r0]
 1501 0016 01A9     		add	r1, sp, #4
 1502 0018 06A8     		add	r0, sp, #24
 1503 001a 02F01E02 		and	r2, r2, #30
 1504 001e FFF7FEFF 		bl	find_volume
 1505 0022 0028     		cmp	r0, #0
 1506 0024 40F04381 		bne	.L433
 1507 0028 03AB     		add	r3, sp, #12
 1508 002a 06A8     		add	r0, sp, #24
 1509 002c 0199     		ldr	r1, [sp, #4]
 1510 002e 0C93     		str	r3, [sp, #48]
 1511 0030 FFF7FEFF 		bl	follow_path
 1512 0034 07F01F08 		and	r8, r7, #31
 1513 0038 0B9D     		ldr	r5, [sp, #44]
 1514 003a 0446     		mov	r4, r0
 1515 003c 58BB     		cbnz	r0, .L349
 1516 003e D5B1     		cbz	r5, .L382
 1517 0040 2246     		mov	r2, r4
 1518 0042 0698     		ldr	r0, [sp, #24]
 1519 0044 DDF820E0 		ldr	lr, [sp, #32]
ARM GAS  /tmp/ccg8rFvg.s 			page 27


 1520 0048 BDF81EC0 		ldrh	ip, [sp, #30]
 1521 004c 994B     		ldr	r3, .L440
 1522              	.L352:
 1523 004e 53F8041C 		ldr	r1, [r3, #-4]
 1524 0052 41B1     		cbz	r1, .L383
 1525 0054 8142     		cmp	r1, r0
 1526 0056 07D1     		bne	.L350
 1527 0058 1968     		ldr	r1, [r3]
 1528 005a 7145     		cmp	r1, lr
 1529 005c 04D1     		bne	.L350
 1530 005e 9988     		ldrh	r1, [r3, #4]
 1531 0060 6145     		cmp	r1, ip
 1532 0062 01D1     		bne	.L350
 1533 0064 09E0     		b	.L437
 1534              	.L383:
 1535 0066 0124     		movs	r4, #1
 1536              	.L350:
 1537 0068 012A     		cmp	r2, #1
 1538 006a 03F10C03 		add	r3, r3, #12
 1539 006e 00F0AB80 		beq	.L431
 1540 0072 0122     		movs	r2, #1
 1541 0074 EBE7     		b	.L352
 1542              	.L382:
 1543 0076 0624     		movs	r4, #6
 1544 0078 0DE0     		b	.L349
 1545              	.L437:
 1546 007a 18F0FE0F 		tst	r8, #254
 1547 007e 40F0A880 		bne	.L393
 1548 0082 8D49     		ldr	r1, .L440+4
 1549 0084 0C23     		movs	r3, #12
 1550 0086 03FB0212 		mla	r2, r3, r2, r1
 1551 008a 5389     		ldrh	r3, [r2, #10]
 1552 008c B3F5807F 		cmp	r3, #256
 1553 0090 14BF     		ite	ne
 1554 0092 0024     		movne	r4, #0
 1555 0094 1024     		moveq	r4, #16
 1556              	.L349:
 1557 0096 17F01C0F 		tst	r7, #28
 1558 009a 73D0     		beq	.L354
 1559 009c 84B1     		cbz	r4, .L355
 1560 009e 042C     		cmp	r4, #4
 1561 00a0 09D1     		bne	.L356
 1562 00a2 854B     		ldr	r3, .L440+4
 1563 00a4 1A68     		ldr	r2, [r3]
 1564 00a6 002A     		cmp	r2, #0
 1565 00a8 00F09580 		beq	.L357
 1566 00ac DB68     		ldr	r3, [r3, #12]
 1567 00ae 002B     		cmp	r3, #0
 1568 00b0 00F09180 		beq	.L357
 1569 00b4 1224     		movs	r4, #18
 1570              	.L356:
 1571 00b6 48F00808 		orr	r8, r8, #8
 1572 00ba 0B9D     		ldr	r5, [sp, #44]
 1573 00bc 44B1     		cbz	r4, .L365
 1574 00be F0E0     		b	.L436
 1575              	.L355:
 1576 00c0 EB7A     		ldrb	r3, [r5, #11]	@ zero_extendqisi2
ARM GAS  /tmp/ccg8rFvg.s 			page 28


 1577 00c2 13F0110F 		tst	r3, #17
 1578 00c6 40F0CC80 		bne	.L391
 1579 00ca 7F07     		lsls	r7, r7, #29
 1580 00cc 00F1B780 		bmi	.L388
 1581              	.L365:
 1582 00d0 18F0080F 		tst	r8, #8
 1583 00d4 60D0     		beq	.L379
 1584 00d6 FFF7FEFF 		bl	get_fattime
 1585 00da C0F30723 		ubfx	r3, r0, #8, #8
 1586 00de 0024     		movs	r4, #0
 1587 00e0 A873     		strb	r0, [r5, #14]
 1588 00e2 EB73     		strb	r3, [r5, #15]
 1589 00e4 069F     		ldr	r7, [sp, #24]
 1590 00e6 030C     		lsrs	r3, r0, #16
 1591 00e8 000E     		lsrs	r0, r0, #24
 1592 00ea 2B74     		strb	r3, [r5, #16]
 1593 00ec 6874     		strb	r0, [r5, #17]
 1594 00ee EC72     		strb	r4, [r5, #11]
 1595 00f0 2C77     		strb	r4, [r5, #28]
 1596 00f2 6C77     		strb	r4, [r5, #29]
 1597 00f4 AC77     		strb	r4, [r5, #30]
 1598 00f6 EC77     		strb	r4, [r5, #31]
 1599 00f8 97F80002 		ldrb	r0, [r7, #512]	@ zero_extendqisi2
 1600 00fc 2946     		mov	r1, r5
 1601 00fe FFF7FEFF 		bl	ld_clust.isra.0
 1602 0102 0123     		movs	r3, #1
 1603 0104 AC76     		strb	r4, [r5, #26]
 1604 0106 EC76     		strb	r4, [r5, #27]
 1605 0108 2C75     		strb	r4, [r5, #20]
 1606 010a 6C75     		strb	r4, [r5, #21]
 1607 010c 8146     		mov	r9, r0
 1608 010e 87F80432 		strb	r3, [r7, #516]
 1609 0112 0028     		cmp	r0, #0
 1610 0114 40D0     		beq	.L379
 1611 0116 9842     		cmp	r0, r3
 1612 0118 D7F82CA2 		ldr	r10, [r7, #556]
 1613 011c 40F2A380 		bls	.L392
 1614 0120 D7F81432 		ldr	r3, [r7, #532]
 1615 0124 9842     		cmp	r0, r3
 1616 0126 80F09E80 		bcs	.L392
 1617 012a 0446     		mov	r4, r0
 1618              	.L370:
 1619 012c D7F81432 		ldr	r3, [r7, #532]
 1620 0130 9C42     		cmp	r4, r3
 1621 0132 80F08680 		bcs	.L371
 1622 0136 3846     		mov	r0, r7
 1623 0138 2146     		mov	r1, r4
 1624 013a FFF7FEFF 		bl	get_fat
 1625 013e 8346     		mov	fp, r0
 1626 0140 0028     		cmp	r0, #0
 1627 0142 7ED0     		beq	.L371
 1628 0144 0128     		cmp	r0, #1
 1629 0146 00F08E80 		beq	.L392
 1630 014a B0F1FF3F 		cmp	r0, #-1
 1631 014e 00F08480 		beq	.L389
 1632 0152 2146     		mov	r1, r4
 1633 0154 3846     		mov	r0, r7
ARM GAS  /tmp/ccg8rFvg.s 			page 29


 1634 0156 0022     		movs	r2, #0
 1635 0158 FFF7FEFF 		bl	put_fat
 1636 015c 0446     		mov	r4, r0
 1637 015e 0028     		cmp	r0, #0
 1638 0160 40F09F80 		bne	.L436
 1639 0164 D7F81032 		ldr	r3, [r7, #528]
 1640 0168 5C1C     		adds	r4, r3, #1
 1641 016a 1EBF     		ittt	ne
 1642 016c 0133     		addne	r3, r3, #1
 1643 016e C7F81032 		strne	r3, [r7, #528]
 1644 0172 97F80532 		ldrbne	r3, [r7, #517]	@ zero_extendqisi2
 1645 0176 5C46     		mov	r4, fp
 1646 0178 1CBF     		itt	ne
 1647 017a 43F00103 		orrne	r3, r3, #1
 1648 017e 87F80532 		strbne	r3, [r7, #517]
 1649 0182 D3E7     		b	.L370
 1650              	.L354:
 1651 0184 002C     		cmp	r4, #0
 1652 0186 40F08C80 		bne	.L436
 1653 018a EB7A     		ldrb	r3, [r5, #11]	@ zero_extendqisi2
 1654 018c D806     		lsls	r0, r3, #27
 1655 018e 66D4     		bmi	.L390
 1656 0190 BA07     		lsls	r2, r7, #30
 1657 0192 01D5     		bpl	.L379
 1658 0194 DB07     		lsls	r3, r3, #31
 1659 0196 64D4     		bmi	.L391
 1660              	.L379:
 1661 0198 069B     		ldr	r3, [sp, #24]
 1662 019a 18F0080F 		tst	r8, #8
 1663 019e D3F82C32 		ldr	r3, [r3, #556]
 1664 01a2 18BF     		it	ne
 1665 01a4 48F02008 		orrne	r8, r8, #32
 1666 01a8 18F0FE0F 		tst	r8, #254
 1667 01ac F361     		str	r3, [r6, #28]
 1668 01ae 3562     		str	r5, [r6, #32]
 1669 01b0 06A8     		add	r0, sp, #24
 1670 01b2 14BF     		ite	ne
 1671 01b4 0121     		movne	r1, #1
 1672 01b6 0021     		moveq	r1, #0
 1673 01b8 FFF7FEFF 		bl	inc_lock
 1674 01bc 7062     		str	r0, [r6, #36]
 1675 01be 0028     		cmp	r0, #0
 1676 01c0 51D0     		beq	.L392
 1677 01c2 52E0     		b	.L438
 1678              	.L380:
 1679 01c4 0920     		movs	r0, #9
 1680 01c6 72E0     		b	.L433
 1681              	.L431:
 1682 01c8 002C     		cmp	r4, #0
 1683 01ca 14BF     		ite	ne
 1684 01cc 0024     		movne	r4, #0
 1685 01ce 1224     		moveq	r4, #18
 1686 01d0 61E7     		b	.L349
 1687              	.L393:
 1688 01d2 1024     		movs	r4, #16
 1689 01d4 5FE7     		b	.L349
 1690              	.L357:
ARM GAS  /tmp/ccg8rFvg.s 			page 30


 1691 01d6 06A8     		add	r0, sp, #24
 1692 01d8 FFF7FEFF 		bl	dir_sdi.constprop.10
 1693              	.L435:
 1694 01dc 0446     		mov	r4, r0
 1695 01de 0028     		cmp	r0, #0
 1696 01e0 61D1     		bne	.L358
 1697 01e2 0698     		ldr	r0, [sp, #24]
 1698 01e4 0A99     		ldr	r1, [sp, #40]
 1699 01e6 FFF7FEFF 		bl	move_window
 1700 01ea 0446     		mov	r4, r0
 1701 01ec 0028     		cmp	r0, #0
 1702 01ee 5AD1     		bne	.L358
 1703 01f0 0B9B     		ldr	r3, [sp, #44]
 1704 01f2 1B78     		ldrb	r3, [r3]	@ zero_extendqisi2
 1705 01f4 E52B     		cmp	r3, #229
 1706 01f6 0BD1     		bne	.L359
 1707              	.L361:
 1708 01f8 0698     		ldr	r0, [sp, #24]
 1709 01fa 0A99     		ldr	r1, [sp, #40]
 1710 01fc FFF7FEFF 		bl	move_window
 1711 0200 0446     		mov	r4, r0
 1712 0202 0028     		cmp	r0, #0
 1713 0204 7FF457AF 		bne	.L356
 1714 0208 0B9B     		ldr	r3, [sp, #44]
 1715 020a 03F12002 		add	r2, r3, #32
 1716 020e 06E0     		b	.L363
 1717              	.L359:
 1718 0210 002B     		cmp	r3, #0
 1719 0212 F1D0     		beq	.L361
 1720 0214 06A8     		add	r0, sp, #24
 1721 0216 0121     		movs	r1, #1
 1722 0218 FFF7FEFF 		bl	dir_next
 1723 021c DEE7     		b	.L435
 1724              	.L363:
 1725 021e 9342     		cmp	r3, r2
 1726 0220 03D0     		beq	.L439
 1727 0222 0021     		movs	r1, #0
 1728 0224 03F8011B 		strb	r1, [r3], #1
 1729 0228 F9E7     		b	.L363
 1730              	.L439:
 1731 022a 0B22     		movs	r2, #11
 1732 022c 0B98     		ldr	r0, [sp, #44]
 1733 022e 0C99     		ldr	r1, [sp, #48]
 1734 0230 FFF7FEFF 		bl	mem_cpy
 1735 0234 069B     		ldr	r3, [sp, #24]
 1736 0236 0122     		movs	r2, #1
 1737 0238 83F80422 		strb	r2, [r3, #516]
 1738 023c 3BE7     		b	.L356
 1739              	.L388:
 1740 023e 0824     		movs	r4, #8
 1741 0240 2FE0     		b	.L436
 1742              	.L371:
 1743 0242 0698     		ldr	r0, [sp, #24]
 1744 0244 09F1FF33 		add	r3, r9, #-1
 1745 0248 C0F80C32 		str	r3, [r0, #524]
 1746 024c 5146     		mov	r1, r10
 1747 024e FFF7FEFF 		bl	move_window
ARM GAS  /tmp/ccg8rFvg.s 			page 31


 1748 0252 0446     		mov	r4, r0
 1749 0254 0028     		cmp	r0, #0
 1750 0256 9FD0     		beq	.L379
 1751 0258 23E0     		b	.L436
 1752              	.L389:
 1753 025a 0124     		movs	r4, #1
 1754 025c 21E0     		b	.L436
 1755              	.L390:
 1756 025e 0424     		movs	r4, #4
 1757 0260 1FE0     		b	.L436
 1758              	.L391:
 1759 0262 0724     		movs	r4, #7
 1760 0264 1DE0     		b	.L436
 1761              	.L392:
 1762 0266 0224     		movs	r4, #2
 1763 0268 1BE0     		b	.L436
 1764              	.L438:
 1765 026a 0024     		movs	r4, #0
 1766 026c 069F     		ldr	r7, [sp, #24]
 1767 026e 86F80680 		strb	r8, [r6, #6]
 1768 0272 F471     		strb	r4, [r6, #7]
 1769 0274 97F80002 		ldrb	r0, [r7, #512]	@ zero_extendqisi2
 1770 0278 2946     		mov	r1, r5
 1771 027a FFF7FEFF 		bl	ld_clust.isra.0
 1772 027e 3061     		str	r0, [r6, #16]
 1773 0280 AB7F     		ldrb	r3, [r5, #30]	@ zero_extendqisi2
 1774 0282 EA7F     		ldrb	r2, [r5, #31]	@ zero_extendqisi2
 1775 0284 1B04     		lsls	r3, r3, #16
 1776 0286 43EA0263 		orr	r3, r3, r2, lsl #24
 1777 028a 2A7F     		ldrb	r2, [r5, #28]	@ zero_extendqisi2
 1778 028c 1343     		orrs	r3, r3, r2
 1779 028e 6A7F     		ldrb	r2, [r5, #29]	@ zero_extendqisi2
 1780 0290 B460     		str	r4, [r6, #8]
 1781 0292 43EA0223 		orr	r3, r3, r2, lsl #8
 1782 0296 F360     		str	r3, [r6, #12]
 1783 0298 B7F80632 		ldrh	r3, [r7, #518]
 1784 029c B461     		str	r4, [r6, #24]
 1785 029e 3760     		str	r7, [r6]
 1786 02a0 B380     		strh	r3, [r6, #4]	@ movhi
 1787              	.L436:
 1788 02a2 2046     		mov	r0, r4
 1789 02a4 03E0     		b	.L433
 1790              	.L358:
 1791 02a6 042C     		cmp	r4, #4
 1792 02a8 08BF     		it	eq
 1793 02aa 0724     		moveq	r4, #7
 1794 02ac 03E7     		b	.L356
 1795              	.L433:
 1796 02ae 0FB0     		add	sp, sp, #60
 1797              		@ sp needed
 1798 02b0 BDE8F08F 		pop	{r4, r5, r6, r7, r8, r9, r10, fp, pc}
 1799              	.L441:
 1800              		.align	2
 1801              	.L440:
 1802 02b4 04000000 		.word	.LANCHOR0+4
 1803 02b8 00000000 		.word	.LANCHOR0
 1805              		.section	.text.f_read,"ax",%progbits
ARM GAS  /tmp/ccg8rFvg.s 			page 32


 1806              		.align	1
 1807              		.global	f_read
 1808              		.thumb
 1809              		.thumb_func
 1811              	f_read:
 1812              		@ args = 0, pretend = 0, frame = 0
 1813              		@ frame_needed = 0, uses_anonymous_args = 0
 1814 0000 2DE9F84F 		push	{r3, r4, r5, r6, r7, r8, r9, r10, fp, lr}
 1815 0004 9946     		mov	r9, r3
 1816 0006 0023     		movs	r3, #0
 1817 0008 C9F80030 		str	r3, [r9]
 1818 000c 0546     		mov	r5, r0
 1819 000e 8846     		mov	r8, r1
 1820 0010 1446     		mov	r4, r2
 1821 0012 FFF7FEFF 		bl	validate
 1822 0016 0028     		cmp	r0, #0
 1823 0018 40F08580 		bne	.L443
 1824 001c E879     		ldrb	r0, [r5, #7]	@ zero_extendqisi2
 1825 001e 0028     		cmp	r0, #0
 1826 0020 40F08180 		bne	.L443
 1827 0024 AB79     		ldrb	r3, [r5, #6]	@ zero_extendqisi2
 1828 0026 DA07     		lsls	r2, r3, #31
 1829 0028 7CD5     		bpl	.L460
 1830 002a EB68     		ldr	r3, [r5, #12]
 1831 002c A868     		ldr	r0, [r5, #8]
 1832 002e 181A     		subs	r0, r3, r0
 1833 0030 8442     		cmp	r4, r0
 1834 0032 28BF     		it	cs
 1835 0034 0446     		movcs	r4, r0
 1836              	.L444:
 1837 0036 002C     		cmp	r4, #0
 1838 0038 71D0     		beq	.L468
 1839 003a AB68     		ldr	r3, [r5, #8]
 1840 003c C3F30802 		ubfx	r2, r3, #0, #9
 1841 0040 002A     		cmp	r2, #0
 1842 0042 4AD1     		bne	.L445
 1843 0044 2868     		ldr	r0, [r5]
 1844 0046 90F80272 		ldrb	r7, [r0, #514]	@ zero_extendqisi2
 1845 004a 013F     		subs	r7, r7, #1
 1846 004c 07EA5327 		and	r7, r7, r3, lsr #9
 1847 0050 17F0FF07 		ands	r7, r7, #255
 1848 0054 10D1     		bne	.L446
 1849 0056 0BB9     		cbnz	r3, .L447
 1850 0058 2869     		ldr	r0, [r5, #16]
 1851 005a 02E0     		b	.L448
 1852              	.L447:
 1853 005c 6969     		ldr	r1, [r5, #20]
 1854 005e FFF7FEFF 		bl	get_fat
 1855              	.L448:
 1856 0062 0128     		cmp	r0, #1
 1857 0064 01D8     		bhi	.L449
 1858              	.L451:
 1859 0066 0220     		movs	r0, #2
 1860 0068 02E0     		b	.L467
 1861              	.L449:
 1862 006a 431C     		adds	r3, r0, #1
 1863 006c 03D1     		bne	.L450
ARM GAS  /tmp/ccg8rFvg.s 			page 33


 1864              	.L454:
 1865 006e 0120     		movs	r0, #1
 1866              	.L467:
 1867 0070 E871     		strb	r0, [r5, #7]
 1868 0072 BDE8F88F 		pop	{r3, r4, r5, r6, r7, r8, r9, r10, fp, pc}
 1869              	.L450:
 1870 0076 6861     		str	r0, [r5, #20]
 1871              	.L446:
 1872 0078 D5F800B0 		ldr	fp, [r5]
 1873 007c 6969     		ldr	r1, [r5, #20]
 1874 007e 5846     		mov	r0, fp
 1875 0080 FFF7FEFF 		bl	clust2sect
 1876 0084 0028     		cmp	r0, #0
 1877 0086 EED0     		beq	.L451
 1878 0088 5FEA542A 		lsrs	r10, r4, #9
 1879 008c 00EB0706 		add	r6, r0, r7
 1880 0090 22D0     		beq	.L452
 1881 0092 9BF80232 		ldrb	r3, [fp, #514]	@ zero_extendqisi2
 1882 0096 0AEB0702 		add	r2, r10, r7
 1883 009a 9A42     		cmp	r2, r3
 1884 009c 88BF     		it	hi
 1885 009e C7EB030A 		rsbhi	r10, r7, r3
 1886 00a2 9BF80102 		ldrb	r0, [fp, #513]	@ zero_extendqisi2
 1887 00a6 4146     		mov	r1, r8
 1888 00a8 3246     		mov	r2, r6
 1889 00aa 5346     		mov	r3, r10
 1890 00ac FFF7FEFF 		bl	disk_read
 1891 00b0 0028     		cmp	r0, #0
 1892 00b2 DCD1     		bne	.L454
 1893 00b4 2968     		ldr	r1, [r5]
 1894 00b6 91F80432 		ldrb	r3, [r1, #516]	@ zero_extendqisi2
 1895 00ba 53B1     		cbz	r3, .L455
 1896 00bc D1F82C02 		ldr	r0, [r1, #556]
 1897 00c0 801B     		subs	r0, r0, r6
 1898 00c2 5045     		cmp	r0, r10
 1899 00c4 05D2     		bcs	.L455
 1900 00c6 08EB4020 		add	r0, r8, r0, lsl #9
 1901 00ca 4FF40072 		mov	r2, #512
 1902 00ce FFF7FEFF 		bl	mem_cpy
 1903              	.L455:
 1904 00d2 4FEA4A26 		lsl	r6, r10, #9
 1905 00d6 17E0     		b	.L456
 1906              	.L452:
 1907 00d8 AE61     		str	r6, [r5, #24]
 1908              	.L445:
 1909 00da AE68     		ldr	r6, [r5, #8]
 1910 00dc 2868     		ldr	r0, [r5]
 1911 00de C6F30806 		ubfx	r6, r6, #0, #9
 1912 00e2 C6F50076 		rsb	r6, r6, #512
 1913 00e6 A642     		cmp	r6, r4
 1914 00e8 A969     		ldr	r1, [r5, #24]
 1915 00ea 28BF     		it	cs
 1916 00ec 2646     		movcs	r6, r4
 1917 00ee FFF7FEFF 		bl	move_window
 1918 00f2 0028     		cmp	r0, #0
 1919 00f4 BBD1     		bne	.L454
 1920 00f6 A968     		ldr	r1, [r5, #8]
ARM GAS  /tmp/ccg8rFvg.s 			page 34


 1921 00f8 2B68     		ldr	r3, [r5]
 1922 00fa C1F30801 		ubfx	r1, r1, #0, #9
 1923 00fe 4046     		mov	r0, r8
 1924 0100 1944     		add	r1, r1, r3
 1925 0102 3246     		mov	r2, r6
 1926 0104 FFF7FEFF 		bl	mem_cpy
 1927              	.L456:
 1928 0108 AB68     		ldr	r3, [r5, #8]
 1929 010a B044     		add	r8, r8, r6
 1930 010c 3344     		add	r3, r3, r6
 1931 010e AB60     		str	r3, [r5, #8]
 1932 0110 D9F80030 		ldr	r3, [r9]
 1933 0114 A41B     		subs	r4, r4, r6
 1934 0116 3344     		add	r3, r3, r6
 1935 0118 C9F80030 		str	r3, [r9]
 1936 011c 8BE7     		b	.L444
 1937              	.L468:
 1938 011e 2046     		mov	r0, r4
 1939 0120 BDE8F88F 		pop	{r3, r4, r5, r6, r7, r8, r9, r10, fp, pc}
 1940              	.L460:
 1941 0124 0720     		movs	r0, #7
 1942              	.L443:
 1943 0126 BDE8F88F 		pop	{r3, r4, r5, r6, r7, r8, r9, r10, fp, pc}
 1945              		.section	.text.f_write,"ax",%progbits
 1946              		.align	1
 1947              		.global	f_write
 1948              		.thumb
 1949              		.thumb_func
 1951              	f_write:
 1952              		@ args = 0, pretend = 0, frame = 0
 1953              		@ frame_needed = 0, uses_anonymous_args = 0
 1954 0000 2DE9F84F 		push	{r3, r4, r5, r6, r7, r8, r9, r10, fp, lr}
 1955 0004 9846     		mov	r8, r3
 1956 0006 0023     		movs	r3, #0
 1957 0008 C8F80030 		str	r3, [r8]
 1958 000c 0446     		mov	r4, r0
 1959 000e 0F46     		mov	r7, r1
 1960 0010 1646     		mov	r6, r2
 1961 0012 FFF7FEFF 		bl	validate
 1962 0016 0028     		cmp	r0, #0
 1963 0018 40F0AE80 		bne	.L470
 1964 001c E079     		ldrb	r0, [r4, #7]	@ zero_extendqisi2
 1965 001e 0028     		cmp	r0, #0
 1966 0020 40F0AA80 		bne	.L470
 1967 0024 A379     		ldrb	r3, [r4, #6]	@ zero_extendqisi2
 1968 0026 9A07     		lsls	r2, r3, #30
 1969 0028 40F1A580 		bpl	.L496
 1970 002c A368     		ldr	r3, [r4, #8]
 1971 002e DE42     		cmn	r6, r3
 1972 0030 28BF     		it	cs
 1973 0032 0026     		movcs	r6, #0
 1974              	.L472:
 1975 0034 B6B1     		cbz	r6, .L493
 1976 0036 A268     		ldr	r2, [r4, #8]
 1977 0038 C2F30803 		ubfx	r3, r2, #0, #9
 1978 003c 002B     		cmp	r3, #0
 1979 003e 6DD1     		bne	.L473
ARM GAS  /tmp/ccg8rFvg.s 			page 35


 1980 0040 2068     		ldr	r0, [r4]
 1981 0042 90F80232 		ldrb	r3, [r0, #514]	@ zero_extendqisi2
 1982 0046 013B     		subs	r3, r3, #1
 1983 0048 03EA5223 		and	r3, r3, r2, lsr #9
 1984 004c 13F0FF0A 		ands	r10, r3, #255
 1985 0050 1CD1     		bne	.L475
 1986 0052 12B9     		cbnz	r2, .L476
 1987 0054 2169     		ldr	r1, [r4, #16]
 1988 0056 59B9     		cbnz	r1, .L477
 1989 0058 00E0     		b	.L500
 1990              	.L476:
 1991 005a 6169     		ldr	r1, [r4, #20]
 1992              	.L500:
 1993 005c FFF7FEFF 		bl	create_chain
 1994 0060 0146     		mov	r1, r0
 1995 0062 28B9     		cbnz	r0, .L477
 1996              	.L493:
 1997 0064 A368     		ldr	r3, [r4, #8]
 1998 0066 E268     		ldr	r2, [r4, #12]
 1999 0068 9342     		cmp	r3, r2
 2000 006a 7DD9     		bls	.L480
 2001 006c E360     		str	r3, [r4, #12]
 2002 006e 7BE0     		b	.L480
 2003              	.L477:
 2004 0070 0129     		cmp	r1, #1
 2005 0072 01D1     		bne	.L481
 2006              	.L486:
 2007 0074 0220     		movs	r0, #2
 2008 0076 02E0     		b	.L501
 2009              	.L481:
 2010 0078 4B1C     		adds	r3, r1, #1
 2011 007a 03D1     		bne	.L482
 2012              	.L485:
 2013 007c 0120     		movs	r0, #1
 2014              	.L501:
 2015 007e E071     		strb	r0, [r4, #7]
 2016 0080 BDE8F88F 		pop	{r3, r4, r5, r6, r7, r8, r9, r10, fp, pc}
 2017              	.L482:
 2018 0084 2369     		ldr	r3, [r4, #16]
 2019 0086 6161     		str	r1, [r4, #20]
 2020 0088 03B9     		cbnz	r3, .L475
 2021 008a 2161     		str	r1, [r4, #16]
 2022              	.L475:
 2023 008c 2068     		ldr	r0, [r4]
 2024 008e A369     		ldr	r3, [r4, #24]
 2025 0090 D0F82C22 		ldr	r2, [r0, #556]
 2026 0094 9A42     		cmp	r2, r3
 2027 0096 03D1     		bne	.L484
 2028 0098 FFF7FEFF 		bl	sync_window
 2029 009c 0028     		cmp	r0, #0
 2030 009e EDD1     		bne	.L485
 2031              	.L484:
 2032 00a0 D4F800B0 		ldr	fp, [r4]
 2033 00a4 6169     		ldr	r1, [r4, #20]
 2034 00a6 5846     		mov	r0, fp
 2035 00a8 FFF7FEFF 		bl	clust2sect
 2036 00ac 0028     		cmp	r0, #0
ARM GAS  /tmp/ccg8rFvg.s 			page 36


 2037 00ae E1D0     		beq	.L486
 2038 00b0 750A     		lsrs	r5, r6, #9
 2039 00b2 00EB0A09 		add	r9, r0, r10
 2040 00b6 23D0     		beq	.L487
 2041 00b8 9BF80232 		ldrb	r3, [fp, #514]	@ zero_extendqisi2
 2042 00bc 05EB0A02 		add	r2, r5, r10
 2043 00c0 9A42     		cmp	r2, r3
 2044 00c2 88BF     		it	hi
 2045 00c4 CAEB0305 		rsbhi	r5, r10, r3
 2046 00c8 9BF80102 		ldrb	r0, [fp, #513]	@ zero_extendqisi2
 2047 00cc 3946     		mov	r1, r7
 2048 00ce 4A46     		mov	r2, r9
 2049 00d0 2B46     		mov	r3, r5
 2050 00d2 FFF7FEFF 		bl	disk_write
 2051 00d6 8246     		mov	r10, r0
 2052 00d8 0028     		cmp	r0, #0
 2053 00da CFD1     		bne	.L485
 2054 00dc 2068     		ldr	r0, [r4]
 2055 00de D0F82C12 		ldr	r1, [r0, #556]
 2056 00e2 C9EB0101 		rsb	r1, r9, r1
 2057 00e6 A942     		cmp	r1, r5
 2058 00e8 08D2     		bcs	.L489
 2059 00ea 07EB4121 		add	r1, r7, r1, lsl #9
 2060 00ee 4FF40072 		mov	r2, #512
 2061 00f2 FFF7FEFF 		bl	mem_cpy
 2062 00f6 2368     		ldr	r3, [r4]
 2063 00f8 83F804A2 		strb	r10, [r3, #516]
 2064              	.L489:
 2065 00fc 6D02     		lsls	r5, r5, #9
 2066 00fe 28E0     		b	.L490
 2067              	.L487:
 2068 0100 A268     		ldr	r2, [r4, #8]
 2069 0102 E368     		ldr	r3, [r4, #12]
 2070 0104 9A42     		cmp	r2, r3
 2071 0106 07D3     		bcc	.L491
 2072 0108 5846     		mov	r0, fp
 2073 010a FFF7FEFF 		bl	sync_window
 2074 010e 0028     		cmp	r0, #0
 2075 0110 B4D1     		bne	.L485
 2076 0112 2368     		ldr	r3, [r4]
 2077 0114 C3F82C92 		str	r9, [r3, #556]
 2078              	.L491:
 2079 0118 C4F81890 		str	r9, [r4, #24]
 2080              	.L473:
 2081 011c A568     		ldr	r5, [r4, #8]
 2082 011e 2068     		ldr	r0, [r4]
 2083 0120 C5F30805 		ubfx	r5, r5, #0, #9
 2084 0124 C5F50075 		rsb	r5, r5, #512
 2085 0128 B542     		cmp	r5, r6
 2086 012a A169     		ldr	r1, [r4, #24]
 2087 012c 28BF     		it	cs
 2088 012e 3546     		movcs	r5, r6
 2089 0130 FFF7FEFF 		bl	move_window
 2090 0134 0028     		cmp	r0, #0
 2091 0136 A1D1     		bne	.L485
 2092 0138 A068     		ldr	r0, [r4, #8]
 2093 013a 2368     		ldr	r3, [r4]
ARM GAS  /tmp/ccg8rFvg.s 			page 37


 2094 013c C0F30800 		ubfx	r0, r0, #0, #9
 2095 0140 1844     		add	r0, r0, r3
 2096 0142 2A46     		mov	r2, r5
 2097 0144 3946     		mov	r1, r7
 2098 0146 FFF7FEFF 		bl	mem_cpy
 2099 014a 2368     		ldr	r3, [r4]
 2100 014c 0122     		movs	r2, #1
 2101 014e 83F80422 		strb	r2, [r3, #516]
 2102              	.L490:
 2103 0152 A368     		ldr	r3, [r4, #8]
 2104 0154 2F44     		add	r7, r7, r5
 2105 0156 2B44     		add	r3, r3, r5
 2106 0158 A360     		str	r3, [r4, #8]
 2107 015a D8F80030 		ldr	r3, [r8]
 2108 015e 761B     		subs	r6, r6, r5
 2109 0160 2B44     		add	r3, r3, r5
 2110 0162 C8F80030 		str	r3, [r8]
 2111 0166 65E7     		b	.L472
 2112              	.L480:
 2113 0168 A379     		ldrb	r3, [r4, #6]	@ zero_extendqisi2
 2114 016a 0020     		movs	r0, #0
 2115 016c 43F02003 		orr	r3, r3, #32
 2116 0170 A371     		strb	r3, [r4, #6]
 2117 0172 BDE8F88F 		pop	{r3, r4, r5, r6, r7, r8, r9, r10, fp, pc}
 2118              	.L496:
 2119 0176 0720     		movs	r0, #7
 2120              	.L470:
 2121 0178 BDE8F88F 		pop	{r3, r4, r5, r6, r7, r8, r9, r10, fp, pc}
 2123              		.section	.text.f_sync,"ax",%progbits
 2124              		.align	1
 2125              		.global	f_sync
 2126              		.thumb
 2127              		.thumb_func
 2129              	f_sync:
 2130              		@ args = 0, pretend = 0, frame = 0
 2131              		@ frame_needed = 0, uses_anonymous_args = 0
 2132 0000 70B5     		push	{r4, r5, r6, lr}
 2133 0002 0546     		mov	r5, r0
 2134 0004 FFF7FEFF 		bl	validate
 2135 0008 0028     		cmp	r0, #0
 2136 000a 40F09780 		bne	.L503
 2137 000e AB79     		ldrb	r3, [r5, #6]	@ zero_extendqisi2
 2138 0010 9B06     		lsls	r3, r3, #26
 2139 0012 40F19380 		bpl	.L503
 2140 0016 2868     		ldr	r0, [r5]
 2141 0018 E969     		ldr	r1, [r5, #28]
 2142 001a FFF7FEFF 		bl	move_window
 2143 001e 0646     		mov	r6, r0
 2144 0020 002E     		cmp	r6, #0
 2145 0022 40F08B80 		bne	.L503
 2146 0026 2C6A     		ldr	r4, [r5, #32]
 2147 0028 E37A     		ldrb	r3, [r4, #11]	@ zero_extendqisi2
 2148 002a 43F02003 		orr	r3, r3, #32
 2149 002e E372     		strb	r3, [r4, #11]
 2150 0030 EB68     		ldr	r3, [r5, #12]
 2151 0032 2377     		strb	r3, [r4, #28]
 2152 0034 AB89     		ldrh	r3, [r5, #12]
ARM GAS  /tmp/ccg8rFvg.s 			page 38


 2153 0036 1B0A     		lsrs	r3, r3, #8
 2154 0038 6377     		strb	r3, [r4, #29]
 2155 003a EB89     		ldrh	r3, [r5, #14]
 2156 003c A377     		strb	r3, [r4, #30]
 2157 003e EB7B     		ldrb	r3, [r5, #15]	@ zero_extendqisi2
 2158 0040 E377     		strb	r3, [r4, #31]
 2159 0042 2B69     		ldr	r3, [r5, #16]
 2160 0044 C3F30722 		ubfx	r2, r3, #8, #8
 2161 0048 A376     		strb	r3, [r4, #26]
 2162 004a 1B0C     		lsrs	r3, r3, #16
 2163 004c 2375     		strb	r3, [r4, #20]
 2164 004e 1B0A     		lsrs	r3, r3, #8
 2165 0050 E276     		strb	r2, [r4, #27]
 2166 0052 6375     		strb	r3, [r4, #21]
 2167 0054 FFF7FEFF 		bl	get_fattime
 2168 0058 C0F30723 		ubfx	r3, r0, #8, #8
 2169 005c A075     		strb	r0, [r4, #22]
 2170 005e E375     		strb	r3, [r4, #23]
 2171 0060 030C     		lsrs	r3, r0, #16
 2172 0062 000E     		lsrs	r0, r0, #24
 2173 0064 6076     		strb	r0, [r4, #25]
 2174 0066 2376     		strb	r3, [r4, #24]
 2175 0068 A674     		strb	r6, [r4, #18]
 2176 006a E674     		strb	r6, [r4, #19]
 2177 006c AB79     		ldrb	r3, [r5, #6]	@ zero_extendqisi2
 2178 006e 0122     		movs	r2, #1
 2179 0070 23F02003 		bic	r3, r3, #32
 2180 0074 AB71     		strb	r3, [r5, #6]
 2181 0076 2B68     		ldr	r3, [r5]
 2182 0078 83F80422 		strb	r2, [r3, #516]
 2183 007c 2C68     		ldr	r4, [r5]
 2184 007e 2046     		mov	r0, r4
 2185 0080 FFF7FEFF 		bl	sync_window
 2186 0084 0028     		cmp	r0, #0
 2187 0086 59D1     		bne	.L503
 2188 0088 94F80032 		ldrb	r3, [r4, #512]	@ zero_extendqisi2
 2189 008c 032B     		cmp	r3, #3
 2190 008e 4CD1     		bne	.L504
 2191 0090 94F80532 		ldrb	r3, [r4, #517]	@ zero_extendqisi2
 2192 0094 012B     		cmp	r3, #1
 2193 0096 48D1     		bne	.L504
 2194 0098 2346     		mov	r3, r4
 2195 009a 04F50072 		add	r2, r4, #512
 2196              	.L505:
 2197 009e 9342     		cmp	r3, r2
 2198 00a0 03D0     		beq	.L510
 2199 00a2 0021     		movs	r1, #0
 2200 00a4 03F8011B 		strb	r1, [r3], #1
 2201 00a8 F9E7     		b	.L505
 2202              	.L510:
 2203 00aa 5523     		movs	r3, #85
 2204 00ac 84F8FE31 		strb	r3, [r4, #510]
 2205 00b0 AA23     		movs	r3, #170
 2206 00b2 84F8FF31 		strb	r3, [r4, #511]
 2207 00b6 5223     		movs	r3, #82
 2208 00b8 2370     		strb	r3, [r4]
 2209 00ba 6370     		strb	r3, [r4, #1]
ARM GAS  /tmp/ccg8rFvg.s 			page 39


 2210 00bc 6123     		movs	r3, #97
 2211 00be A370     		strb	r3, [r4, #2]
 2212 00c0 84F8E731 		strb	r3, [r4, #487]
 2213 00c4 D4F81032 		ldr	r3, [r4, #528]
 2214 00c8 4122     		movs	r2, #65
 2215 00ca E270     		strb	r2, [r4, #3]
 2216 00cc 84F8E621 		strb	r2, [r4, #486]
 2217 00d0 C3F30722 		ubfx	r2, r3, #8, #8
 2218 00d4 84F8E831 		strb	r3, [r4, #488]
 2219 00d8 84F8E921 		strb	r2, [r4, #489]
 2220 00dc 1A0C     		lsrs	r2, r3, #16
 2221 00de 1B0E     		lsrs	r3, r3, #24
 2222 00e0 84F8EB31 		strb	r3, [r4, #491]
 2223 00e4 D4F80C32 		ldr	r3, [r4, #524]
 2224 00e8 84F8EA21 		strb	r2, [r4, #490]
 2225 00ec C3F30722 		ubfx	r2, r3, #8, #8
 2226 00f0 84F8ED21 		strb	r2, [r4, #493]
 2227 00f4 1A0C     		lsrs	r2, r3, #16
 2228 00f6 84F8EE21 		strb	r2, [r4, #494]
 2229 00fa D4F81C22 		ldr	r2, [r4, #540]
 2230 00fe 7221     		movs	r1, #114
 2231 0100 84F8EC31 		strb	r3, [r4, #492]
 2232 0104 0132     		adds	r2, r2, #1
 2233 0106 1B0E     		lsrs	r3, r3, #24
 2234 0108 84F8E411 		strb	r1, [r4, #484]
 2235 010c 84F8E511 		strb	r1, [r4, #485]
 2236 0110 84F8EF31 		strb	r3, [r4, #495]
 2237 0114 C4F82C22 		str	r2, [r4, #556]
 2238 0118 0123     		movs	r3, #1
 2239 011a 94F80102 		ldrb	r0, [r4, #513]	@ zero_extendqisi2
 2240 011e 2146     		mov	r1, r4
 2241 0120 FFF7FEFF 		bl	disk_write
 2242 0124 0023     		movs	r3, #0
 2243 0126 84F80532 		strb	r3, [r4, #517]
 2244              	.L504:
 2245 012a 0021     		movs	r1, #0
 2246 012c 94F80102 		ldrb	r0, [r4, #513]	@ zero_extendqisi2
 2247 0130 0A46     		mov	r2, r1
 2248 0132 FFF7FEFF 		bl	disk_ioctl
 2249 0136 0030     		adds	r0, r0, #0
 2250 0138 18BF     		it	ne
 2251 013a 0120     		movne	r0, #1
 2252              	.L503:
 2253 013c 70BD     		pop	{r4, r5, r6, pc}
 2255              		.section	.text.f_close,"ax",%progbits
 2256              		.align	1
 2257              		.global	f_close
 2258              		.thumb
 2259              		.thumb_func
 2261              	f_close:
 2262              		@ args = 0, pretend = 0, frame = 0
 2263              		@ frame_needed = 0, uses_anonymous_args = 0
 2264 0000 10B5     		push	{r4, lr}
 2265 0002 0446     		mov	r4, r0
 2266 0004 FFF7FEFF 		bl	f_sync
 2267 0008 40B9     		cbnz	r0, .L512
 2268 000a 2046     		mov	r0, r4
ARM GAS  /tmp/ccg8rFvg.s 			page 40


 2269 000c FFF7FEFF 		bl	validate
 2270 0010 20B9     		cbnz	r0, .L512
 2271 0012 606A     		ldr	r0, [r4, #36]
 2272 0014 FFF7FEFF 		bl	dec_lock
 2273 0018 00B9     		cbnz	r0, .L512
 2274 001a 2060     		str	r0, [r4]
 2275              	.L512:
 2276 001c 10BD     		pop	{r4, pc}
 2278              		.section	.text.f_lseek,"ax",%progbits
 2279              		.align	1
 2280              		.global	f_lseek
 2281              		.thumb
 2282              		.thumb_func
 2284              	f_lseek:
 2285              		@ args = 0, pretend = 0, frame = 0
 2286              		@ frame_needed = 0, uses_anonymous_args = 0
 2287 0000 70B5     		push	{r4, r5, r6, lr}
 2288 0002 0446     		mov	r4, r0
 2289 0004 0D46     		mov	r5, r1
 2290 0006 FFF7FEFF 		bl	validate
 2291 000a 0028     		cmp	r0, #0
 2292 000c 72D1     		bne	.L514
 2293 000e E079     		ldrb	r0, [r4, #7]	@ zero_extendqisi2
 2294 0010 0028     		cmp	r0, #0
 2295 0012 6FD1     		bne	.L514
 2296 0014 E368     		ldr	r3, [r4, #12]
 2297 0016 9D42     		cmp	r5, r3
 2298 0018 04D9     		bls	.L515
 2299 001a A279     		ldrb	r2, [r4, #6]	@ zero_extendqisi2
 2300 001c 12F0020F 		tst	r2, #2
 2301 0020 08BF     		it	eq
 2302 0022 1D46     		moveq	r5, r3
 2303              	.L515:
 2304 0024 0022     		movs	r2, #0
 2305 0026 A368     		ldr	r3, [r4, #8]
 2306 0028 A260     		str	r2, [r4, #8]
 2307 002a 0DB9     		cbnz	r5, .L516
 2308              	.L523:
 2309 002c 0025     		movs	r5, #0
 2310 002e 50E0     		b	.L517
 2311              	.L516:
 2312 0030 2068     		ldr	r0, [r4]
 2313 0032 90F80262 		ldrb	r6, [r0, #514]	@ zero_extendqisi2
 2314 0036 7602     		lsls	r6, r6, #9
 2315 0038 6BB1     		cbz	r3, .L518
 2316 003a 013B     		subs	r3, r3, #1
 2317 003c 6A1E     		subs	r2, r5, #1
 2318 003e B2FBF6F2 		udiv	r2, r2, r6
 2319 0042 B3FBF6F1 		udiv	r1, r3, r6
 2320 0046 8A42     		cmp	r2, r1
 2321 0048 05D3     		bcc	.L518
 2322 004a 7242     		negs	r2, r6
 2323 004c 1340     		ands	r3, r3, r2
 2324 004e A360     		str	r3, [r4, #8]
 2325 0050 ED1A     		subs	r5, r5, r3
 2326 0052 6169     		ldr	r1, [r4, #20]
 2327 0054 0FE0     		b	.L519
ARM GAS  /tmp/ccg8rFvg.s 			page 41


 2328              	.L518:
 2329 0056 2169     		ldr	r1, [r4, #16]
 2330 0058 61B9     		cbnz	r1, .L520
 2331 005a FFF7FEFF 		bl	create_chain
 2332 005e 0128     		cmp	r0, #1
 2333 0060 0146     		mov	r1, r0
 2334 0062 01D1     		bne	.L521
 2335              	.L529:
 2336 0064 0220     		movs	r0, #2
 2337 0066 02E0     		b	.L554
 2338              	.L521:
 2339 0068 0130     		adds	r0, r0, #1
 2340 006a 02D1     		bne	.L522
 2341              	.L528:
 2342 006c 0120     		movs	r0, #1
 2343              	.L554:
 2344 006e E071     		strb	r0, [r4, #7]
 2345 0070 70BD     		pop	{r4, r5, r6, pc}
 2346              	.L522:
 2347 0072 2161     		str	r1, [r4, #16]
 2348              	.L520:
 2349 0074 6161     		str	r1, [r4, #20]
 2350              	.L519:
 2351 0076 0029     		cmp	r1, #0
 2352 0078 D8D0     		beq	.L523
 2353              	.L524:
 2354 007a B542     		cmp	r5, r6
 2355 007c 1BD9     		bls	.L526
 2356 007e A379     		ldrb	r3, [r4, #6]	@ zero_extendqisi2
 2357 0080 2068     		ldr	r0, [r4]
 2358 0082 9A07     		lsls	r2, r3, #30
 2359 0084 04D5     		bpl	.L525
 2360 0086 FFF7FEFF 		bl	create_chain
 2361 008a 0146     		mov	r1, r0
 2362 008c 18B9     		cbnz	r0, .L527
 2363 008e 11E0     		b	.L555
 2364              	.L525:
 2365 0090 FFF7FEFF 		bl	get_fat
 2366 0094 0146     		mov	r1, r0
 2367              	.L527:
 2368 0096 4B1C     		adds	r3, r1, #1
 2369 0098 E8D0     		beq	.L528
 2370 009a 0129     		cmp	r1, #1
 2371 009c E2D9     		bls	.L529
 2372 009e 2368     		ldr	r3, [r4]
 2373 00a0 D3F81432 		ldr	r3, [r3, #532]
 2374 00a4 9942     		cmp	r1, r3
 2375 00a6 DDD2     		bcs	.L529
 2376 00a8 A368     		ldr	r3, [r4, #8]
 2377 00aa 6161     		str	r1, [r4, #20]
 2378 00ac 3344     		add	r3, r3, r6
 2379 00ae A360     		str	r3, [r4, #8]
 2380 00b0 AD1B     		subs	r5, r5, r6
 2381 00b2 E2E7     		b	.L524
 2382              	.L555:
 2383 00b4 3546     		mov	r5, r6
 2384              	.L526:
ARM GAS  /tmp/ccg8rFvg.s 			page 42


 2385 00b6 A368     		ldr	r3, [r4, #8]
 2386 00b8 2B44     		add	r3, r3, r5
 2387 00ba A360     		str	r3, [r4, #8]
 2388 00bc C5F30803 		ubfx	r3, r5, #0, #9
 2389 00c0 002B     		cmp	r3, #0
 2390 00c2 B3D0     		beq	.L523
 2391 00c4 2068     		ldr	r0, [r4]
 2392 00c6 FFF7FEFF 		bl	clust2sect
 2393 00ca 0028     		cmp	r0, #0
 2394 00cc CAD0     		beq	.L529
 2395 00ce 00EB5525 		add	r5, r0, r5, lsr #9
 2396              	.L517:
 2397 00d2 A368     		ldr	r3, [r4, #8]
 2398 00d4 C3F30802 		ubfx	r2, r3, #0, #9
 2399 00d8 1AB1     		cbz	r2, .L531
 2400 00da A269     		ldr	r2, [r4, #24]
 2401 00dc 9542     		cmp	r5, r2
 2402 00de 18BF     		it	ne
 2403 00e0 A561     		strne	r5, [r4, #24]
 2404              	.L531:
 2405 00e2 E268     		ldr	r2, [r4, #12]
 2406 00e4 0020     		movs	r0, #0
 2407 00e6 9342     		cmp	r3, r2
 2408 00e8 81BF     		itttt	hi
 2409 00ea E360     		strhi	r3, [r4, #12]
 2410 00ec A379     		ldrbhi	r3, [r4, #6]	@ zero_extendqisi2
 2411 00ee 43F02003 		orrhi	r3, r3, #32
 2412 00f2 A371     		strbhi	r3, [r4, #6]
 2413              	.L514:
 2414 00f4 70BD     		pop	{r4, r5, r6, pc}
 2416              		.section	.text.f_opendir,"ax",%progbits
 2417              		.align	1
 2418              		.global	f_opendir
 2419              		.thumb
 2420              		.thumb_func
 2422              	f_opendir:
 2423              		@ args = 0, pretend = 0, frame = 24
 2424              		@ frame_needed = 0, uses_anonymous_args = 0
 2425 0000 10B5     		push	{r4, lr}
 2426 0002 86B0     		sub	sp, sp, #24
 2427 0004 0191     		str	r1, [sp, #4]
 2428 0006 0446     		mov	r4, r0
 2429 0008 08B3     		cbz	r0, .L566
 2430 000a 01A9     		add	r1, sp, #4
 2431 000c 02A8     		add	r0, sp, #8
 2432 000e 0022     		movs	r2, #0
 2433 0010 FFF7FEFF 		bl	find_volume
 2434 0014 0146     		mov	r1, r0
 2435 0016 B0B9     		cbnz	r0, .L561
 2436 0018 029B     		ldr	r3, [sp, #8]
 2437 001a 0199     		ldr	r1, [sp, #4]
 2438 001c 2360     		str	r3, [r4]
 2439 001e 03AB     		add	r3, sp, #12
 2440 0020 A361     		str	r3, [r4, #24]
 2441 0022 2046     		mov	r0, r4
 2442 0024 FFF7FEFF 		bl	follow_path
 2443 0028 0146     		mov	r1, r0
ARM GAS  /tmp/ccg8rFvg.s 			page 43


 2444 002a 30BB     		cbnz	r0, .L559
 2445 002c 6169     		ldr	r1, [r4, #20]
 2446 002e 81B1     		cbz	r1, .L560
 2447 0030 CB7A     		ldrb	r3, [r1, #11]	@ zero_extendqisi2
 2448 0032 DB06     		lsls	r3, r3, #27
 2449 0034 06D5     		bpl	.L567
 2450 0036 029B     		ldr	r3, [sp, #8]
 2451 0038 93F80002 		ldrb	r0, [r3, #512]	@ zero_extendqisi2
 2452 003c FFF7FEFF 		bl	ld_clust.isra.0
 2453 0040 A060     		str	r0, [r4, #8]
 2454 0042 06E0     		b	.L560
 2455              	.L567:
 2456 0044 0521     		movs	r1, #5
 2457              	.L561:
 2458 0046 0023     		movs	r3, #0
 2459 0048 2360     		str	r3, [r4]
 2460 004a 0846     		mov	r0, r1
 2461 004c 1AE0     		b	.L572
 2462              	.L566:
 2463 004e 0920     		movs	r0, #9
 2464 0050 18E0     		b	.L572
 2465              	.L560:
 2466 0052 029B     		ldr	r3, [sp, #8]
 2467 0054 2046     		mov	r0, r4
 2468 0056 B3F80632 		ldrh	r3, [r3, #518]
 2469 005a A380     		strh	r3, [r4, #4]	@ movhi
 2470 005c FFF7FEFF 		bl	dir_sdi.constprop.10
 2471 0060 0146     		mov	r1, r0
 2472 0062 50B9     		cbnz	r0, .L559
 2473 0064 A368     		ldr	r3, [r4, #8]
 2474 0066 33B1     		cbz	r3, .L562
 2475 0068 2046     		mov	r0, r4
 2476 006a FFF7FEFF 		bl	inc_lock
 2477 006e E061     		str	r0, [r4, #28]
 2478 0070 38B9     		cbnz	r0, .L564
 2479 0072 1221     		movs	r1, #18
 2480 0074 E7E7     		b	.L561
 2481              	.L562:
 2482 0076 E361     		str	r3, [r4, #28]
 2483 0078 03E0     		b	.L564
 2484              	.L559:
 2485 007a 0429     		cmp	r1, #4
 2486 007c 08BF     		it	eq
 2487 007e 0521     		moveq	r1, #5
 2488 0080 E1E7     		b	.L561
 2489              	.L564:
 2490 0082 0020     		movs	r0, #0
 2491              	.L572:
 2492 0084 06B0     		add	sp, sp, #24
 2493              		@ sp needed
 2494 0086 10BD     		pop	{r4, pc}
 2496              		.section	.text.f_closedir,"ax",%progbits
 2497              		.align	1
 2498              		.global	f_closedir
 2499              		.thumb
 2500              		.thumb_func
 2502              	f_closedir:
ARM GAS  /tmp/ccg8rFvg.s 			page 44


 2503              		@ args = 0, pretend = 0, frame = 0
 2504              		@ frame_needed = 0, uses_anonymous_args = 0
 2505 0000 38B5     		push	{r3, r4, r5, lr}
 2506 0002 0546     		mov	r5, r0
 2507 0004 FFF7FEFF 		bl	validate
 2508 0008 0446     		mov	r4, r0
 2509 000a 48B9     		cbnz	r0, .L574
 2510 000c E869     		ldr	r0, [r5, #28]
 2511 000e 10B9     		cbnz	r0, .L575
 2512              	.L576:
 2513 0010 0023     		movs	r3, #0
 2514 0012 2B60     		str	r3, [r5]
 2515 0014 04E0     		b	.L574
 2516              	.L575:
 2517 0016 FFF7FEFF 		bl	dec_lock
 2518 001a 0028     		cmp	r0, #0
 2519 001c F8D0     		beq	.L576
 2520 001e 0446     		mov	r4, r0
 2521              	.L574:
 2522 0020 2046     		mov	r0, r4
 2523 0022 38BD     		pop	{r3, r4, r5, pc}
 2525              		.section	.text.f_readdir,"ax",%progbits
 2526              		.align	1
 2527              		.global	f_readdir
 2528              		.thumb
 2529              		.thumb_func
 2531              	f_readdir:
 2532              		@ args = 0, pretend = 0, frame = 16
 2533              		@ frame_needed = 0, uses_anonymous_args = 0
 2534 0000 F0B5     		push	{r4, r5, r6, r7, lr}
 2535 0002 85B0     		sub	sp, sp, #20
 2536 0004 0446     		mov	r4, r0
 2537 0006 0D46     		mov	r5, r1
 2538 0008 FFF7FEFF 		bl	validate
 2539 000c 0646     		mov	r6, r0
 2540 000e 0028     		cmp	r0, #0
 2541 0010 6CD1     		bne	.L605
 2542 0012 1DB9     		cbnz	r5, .L582
 2543 0014 2046     		mov	r0, r4
 2544 0016 FFF7FEFF 		bl	dir_sdi.constprop.10
 2545 001a 66E0     		b	.L619
 2546              	.L582:
 2547 001c 01AB     		add	r3, sp, #4
 2548 001e A361     		str	r3, [r4, #24]
 2549 0020 0420     		movs	r0, #4
 2550              	.L583:
 2551 0022 2169     		ldr	r1, [r4, #16]
 2552 0024 D9B1     		cbz	r1, .L620
 2553 0026 2068     		ldr	r0, [r4]
 2554 0028 FFF7FEFF 		bl	move_window
 2555 002c C0B9     		cbnz	r0, .L594
 2556 002e 6369     		ldr	r3, [r4, #20]
 2557 0030 1A78     		ldrb	r2, [r3]	@ zero_extendqisi2
 2558 0032 002A     		cmp	r2, #0
 2559 0034 53D0     		beq	.L597
 2560 0036 E52A     		cmp	r2, #229
 2561 0038 DB7A     		ldrb	r3, [r3, #11]	@ zero_extendqisi2
ARM GAS  /tmp/ccg8rFvg.s 			page 45


 2562 003a 09D0     		beq	.L585
 2563 003c 2E2A     		cmp	r2, #46
 2564 003e 07D0     		beq	.L585
 2565 0040 03F03F03 		and	r3, r3, #63
 2566 0044 0F2B     		cmp	r3, #15
 2567 0046 03D0     		beq	.L585
 2568 0048 23F02003 		bic	r3, r3, #32
 2569 004c 082B     		cmp	r3, #8
 2570 004e 0BD1     		bne	.L595
 2571              	.L585:
 2572 0050 2046     		mov	r0, r4
 2573 0052 0021     		movs	r1, #0
 2574 0054 FFF7FEFF 		bl	dir_next
 2575 0058 0028     		cmp	r0, #0
 2576 005a E2D0     		beq	.L583
 2577 005c 00E0     		b	.L594
 2578              	.L620:
 2579 005e 18B1     		cbz	r0, .L595
 2580              	.L594:
 2581 0060 0023     		movs	r3, #0
 2582 0062 0428     		cmp	r0, #4
 2583 0064 2361     		str	r3, [r4, #16]
 2584 0066 3CD1     		bne	.L588
 2585              	.L595:
 2586 0068 2369     		ldr	r3, [r4, #16]
 2587 006a 05F10902 		add	r2, r5, #9
 2588 006e 63B3     		cbz	r3, .L589
 2589 0070 6369     		ldr	r3, [r4, #20]
 2590 0072 0020     		movs	r0, #0
 2591 0074 5F1E     		subs	r7, r3, #1
 2592              	.L593:
 2593 0076 17F8011F 		ldrb	r1, [r7, #1]!	@ zero_extendqisi2
 2594 007a 0130     		adds	r0, r0, #1
 2595 007c 2029     		cmp	r1, #32
 2596 007e 0BD0     		beq	.L590
 2597 0080 0529     		cmp	r1, #5
 2598 0082 08BF     		it	eq
 2599 0084 E521     		moveq	r1, #229
 2600 0086 0928     		cmp	r0, #9
 2601 0088 02BF     		ittt	eq
 2602 008a 4FF02E0E 		moveq	lr, #46
 2603 008e 82F800E0 		strbeq	lr, [r2]
 2604 0092 0132     		addeq	r2, r2, #1
 2605 0094 1170     		strb	r1, [r2]
 2606 0096 0132     		adds	r2, r2, #1
 2607              	.L590:
 2608 0098 0B28     		cmp	r0, #11
 2609 009a ECD1     		bne	.L593
 2610 009c D97A     		ldrb	r1, [r3, #11]	@ zero_extendqisi2
 2611 009e 2972     		strb	r1, [r5, #8]
 2612 00a0 997F     		ldrb	r1, [r3, #30]	@ zero_extendqisi2
 2613 00a2 D87F     		ldrb	r0, [r3, #31]	@ zero_extendqisi2
 2614 00a4 0904     		lsls	r1, r1, #16
 2615 00a6 41EA0061 		orr	r1, r1, r0, lsl #24
 2616 00aa 187F     		ldrb	r0, [r3, #28]	@ zero_extendqisi2
 2617 00ac 0143     		orrs	r1, r1, r0
 2618 00ae 587F     		ldrb	r0, [r3, #29]	@ zero_extendqisi2
ARM GAS  /tmp/ccg8rFvg.s 			page 46


 2619 00b0 41EA0021 		orr	r1, r1, r0, lsl #8
 2620 00b4 2960     		str	r1, [r5]
 2621 00b6 587E     		ldrb	r0, [r3, #25]	@ zero_extendqisi2
 2622 00b8 197E     		ldrb	r1, [r3, #24]	@ zero_extendqisi2
 2623 00ba 41EA0021 		orr	r1, r1, r0, lsl #8
 2624 00be A980     		strh	r1, [r5, #4]	@ movhi
 2625 00c0 D97D     		ldrb	r1, [r3, #23]	@ zero_extendqisi2
 2626 00c2 9B7D     		ldrb	r3, [r3, #22]	@ zero_extendqisi2
 2627 00c4 43EA0123 		orr	r3, r3, r1, lsl #8
 2628 00c8 EB80     		strh	r3, [r5, #6]	@ movhi
 2629              	.L589:
 2630 00ca 0025     		movs	r5, #0
 2631 00cc 1570     		strb	r5, [r2]
 2632 00ce 2046     		mov	r0, r4
 2633 00d0 2946     		mov	r1, r5
 2634 00d2 FFF7FEFF 		bl	dir_next
 2635 00d6 0428     		cmp	r0, #4
 2636 00d8 07D1     		bne	.L619
 2637 00da 2561     		str	r5, [r4, #16]
 2638 00dc 06E0     		b	.L605
 2639              	.L597:
 2640 00de 0420     		movs	r0, #4
 2641 00e0 BEE7     		b	.L594
 2642              	.L588:
 2643 00e2 10B9     		cbnz	r0, .L619
 2644 00e4 05F10902 		add	r2, r5, #9
 2645 00e8 EFE7     		b	.L589
 2646              	.L619:
 2647 00ea 0646     		mov	r6, r0
 2648              	.L605:
 2649 00ec 3046     		mov	r0, r6
 2650 00ee 05B0     		add	sp, sp, #20
 2651              		@ sp needed
 2652 00f0 F0BD     		pop	{r4, r5, r6, r7, pc}
 2654              		.section	.rodata.str1.1,"aMS",%progbits,1
 2655              	.LC0:
 2656 0000 222A2B2C 		.ascii	"\"*+,:;<=>?[]|\177\000"
 2656      3A3B3C3D 
 2656      3E3F5B5D 
 2656      7C7F00
 2657              		.section	.bss.Fsid,"aw",%nobits
 2658              		.align	1
 2659              		.set	.LANCHOR2,. + 0
 2662              	Fsid:
 2663 0000 0000     		.space	2
 2664              		.section	.rodata.ExCvt,"a",%progbits
 2665              		.set	.LANCHOR3,. + 0
 2668              	ExCvt:
 2669 0000 80       		.byte	-128
 2670 0001 9A       		.byte	-102
 2671 0002 90       		.byte	-112
 2672 0003 B6       		.byte	-74
 2673 0004 8E       		.byte	-114
 2674 0005 B7       		.byte	-73
 2675 0006 8F       		.byte	-113
 2676 0007 80       		.byte	-128
 2677 0008 D2       		.byte	-46
ARM GAS  /tmp/ccg8rFvg.s 			page 47


 2678 0009 D3       		.byte	-45
 2679 000a D4       		.byte	-44
 2680 000b D8       		.byte	-40
 2681 000c D7       		.byte	-41
 2682 000d DE       		.byte	-34
 2683 000e 8E       		.byte	-114
 2684 000f 8F       		.byte	-113
 2685 0010 90       		.byte	-112
 2686 0011 92       		.byte	-110
 2687 0012 92       		.byte	-110
 2688 0013 E2       		.byte	-30
 2689 0014 99       		.byte	-103
 2690 0015 E3       		.byte	-29
 2691 0016 EA       		.byte	-22
 2692 0017 EB       		.byte	-21
 2693 0018 59       		.byte	89
 2694 0019 99       		.byte	-103
 2695 001a 9A       		.byte	-102
 2696 001b 9D       		.byte	-99
 2697 001c 9C       		.byte	-100
 2698 001d 9D       		.byte	-99
 2699 001e 9E       		.byte	-98
 2700 001f 9F       		.byte	-97
 2701 0020 B5       		.byte	-75
 2702 0021 D6       		.byte	-42
 2703 0022 E0       		.byte	-32
 2704 0023 E9       		.byte	-23
 2705 0024 A5       		.byte	-91
 2706 0025 A5       		.byte	-91
 2707 0026 A6       		.byte	-90
 2708 0027 A7       		.byte	-89
 2709 0028 A8       		.byte	-88
 2710 0029 A9       		.byte	-87
 2711 002a AA       		.byte	-86
 2712 002b AB       		.byte	-85
 2713 002c AC       		.byte	-84
 2714 002d 21       		.byte	33
 2715 002e AE       		.byte	-82
 2716 002f AF       		.byte	-81
 2717 0030 B0       		.byte	-80
 2718 0031 B1       		.byte	-79
 2719 0032 B2       		.byte	-78
 2720 0033 B3       		.byte	-77
 2721 0034 B4       		.byte	-76
 2722 0035 B5       		.byte	-75
 2723 0036 B6       		.byte	-74
 2724 0037 B7       		.byte	-73
 2725 0038 B8       		.byte	-72
 2726 0039 B9       		.byte	-71
 2727 003a BA       		.byte	-70
 2728 003b BB       		.byte	-69
 2729 003c BC       		.byte	-68
 2730 003d BD       		.byte	-67
 2731 003e BE       		.byte	-66
 2732 003f BF       		.byte	-65
 2733 0040 C0       		.byte	-64
 2734 0041 C1       		.byte	-63
ARM GAS  /tmp/ccg8rFvg.s 			page 48


 2735 0042 C2       		.byte	-62
 2736 0043 C3       		.byte	-61
 2737 0044 C4       		.byte	-60
 2738 0045 C5       		.byte	-59
 2739 0046 C7       		.byte	-57
 2740 0047 C7       		.byte	-57
 2741 0048 C8       		.byte	-56
 2742 0049 C9       		.byte	-55
 2743 004a CA       		.byte	-54
 2744 004b CB       		.byte	-53
 2745 004c CC       		.byte	-52
 2746 004d CD       		.byte	-51
 2747 004e CE       		.byte	-50
 2748 004f CF       		.byte	-49
 2749 0050 D0       		.byte	-48
 2750 0051 D1       		.byte	-47
 2751 0052 D2       		.byte	-46
 2752 0053 D3       		.byte	-45
 2753 0054 D4       		.byte	-44
 2754 0055 D5       		.byte	-43
 2755 0056 D6       		.byte	-42
 2756 0057 D7       		.byte	-41
 2757 0058 D8       		.byte	-40
 2758 0059 D9       		.byte	-39
 2759 005a DA       		.byte	-38
 2760 005b DB       		.byte	-37
 2761 005c DC       		.byte	-36
 2762 005d DD       		.byte	-35
 2763 005e DE       		.byte	-34
 2764 005f DF       		.byte	-33
 2765 0060 E0       		.byte	-32
 2766 0061 E1       		.byte	-31
 2767 0062 E2       		.byte	-30
 2768 0063 E3       		.byte	-29
 2769 0064 E5       		.byte	-27
 2770 0065 E5       		.byte	-27
 2771 0066 E6       		.byte	-26
 2772 0067 E7       		.byte	-25
 2773 0068 E7       		.byte	-25
 2774 0069 E9       		.byte	-23
 2775 006a EA       		.byte	-22
 2776 006b EB       		.byte	-21
 2777 006c ED       		.byte	-19
 2778 006d ED       		.byte	-19
 2779 006e EE       		.byte	-18
 2780 006f EF       		.byte	-17
 2781 0070 F0       		.byte	-16
 2782 0071 F1       		.byte	-15
 2783 0072 F2       		.byte	-14
 2784 0073 F3       		.byte	-13
 2785 0074 F4       		.byte	-12
 2786 0075 F5       		.byte	-11
 2787 0076 F6       		.byte	-10
 2788 0077 F7       		.byte	-9
 2789 0078 F8       		.byte	-8
 2790 0079 F9       		.byte	-7
 2791 007a FA       		.byte	-6
ARM GAS  /tmp/ccg8rFvg.s 			page 49


 2792 007b FB       		.byte	-5
 2793 007c FC       		.byte	-4
 2794 007d FD       		.byte	-3
 2795 007e FE       		.byte	-2
 2796 007f FF       		.byte	-1
 2797              		.section	.bss.Files,"aw",%nobits
 2798              		.align	2
 2799              		.set	.LANCHOR0,. + 0
 2802              	Files:
 2803 0000 00000000 		.space	24
 2803      00000000 
 2803      00000000 
 2803      00000000 
 2803      00000000 
 2804              		.section	.bss.FatFs,"aw",%nobits
 2805              		.align	2
 2806              		.set	.LANCHOR1,. + 0
 2809              	FatFs:
 2810 0000 00000000 		.space	4
 2811              		.ident	"GCC: (15:4.9.3+svn231177-1) 4.9.3 20150529 (prerelease)"
ARM GAS  /tmp/ccg8rFvg.s 			page 50

