ARM GAS  /tmp/ccNpLmFB.s 			page 1


   1              		.syntax unified
   2              		.cpu cortex-m3
   3              		.fpu softvfp
   4              		.eabi_attribute 20, 1
   5              		.eabi_attribute 21, 1
   6              		.eabi_attribute 23, 3
   7              		.eabi_attribute 24, 1
   8              		.eabi_attribute 25, 1
   9              		.eabi_attribute 26, 1
  10              		.eabi_attribute 30, 4
  11              		.eabi_attribute 34, 1
  12              		.eabi_attribute 18, 4
  13              		.thumb
  14              		.file	"stm32f1xx_hal_rtc.c"
  15              		.section	.text.RTC_ReadTimeCounter,"ax",%progbits
  16              		.align	1
  17              		.thumb
  18              		.thumb_func
  20              	RTC_ReadTimeCounter:
  21              		@ args = 0, pretend = 0, frame = 0
  22              		@ frame_needed = 0, uses_anonymous_args = 0
  23 0000 10B5     		push	{r4, lr}
  24 0002 0468     		ldr	r4, [r0]
  25 0004 A069     		ldr	r0, [r4, #24]
  26 0006 E369     		ldr	r3, [r4, #28]
  27 0008 A169     		ldr	r1, [r4, #24]
  28 000a 82B2     		uxth	r2, r0
  29 000c 88B2     		uxth	r0, r1
  30 000e 8242     		cmp	r2, r0
  31 0010 17BF     		itett	ne
  32 0012 E369     		ldrne	r3, [r4, #28]
  33 0014 9BB2     		uxtheq	r3, r3
  34 0016 9BB2     		uxthne	r3, r3
  35 0018 43EA0040 		orrne	r0, r3, r0, lsl #16
  36 001c 08BF     		it	eq
  37 001e 43EA0240 		orreq	r0, r3, r2, lsl #16
  38 0022 10BD     		pop	{r4, pc}
  40              		.section	.text.RTC_ReadAlarmCounter,"ax",%progbits
  41              		.align	1
  42              		.thumb
  43              		.thumb_func
  45              	RTC_ReadAlarmCounter:
  46              		@ args = 0, pretend = 0, frame = 0
  47              		@ frame_needed = 0, uses_anonymous_args = 0
  48              		@ link register save eliminated.
  49 0000 0368     		ldr	r3, [r0]
  50 0002 186A     		ldr	r0, [r3, #32]
  51 0004 5B6A     		ldr	r3, [r3, #36]
  52 0006 9BB2     		uxth	r3, r3
  53 0008 43EA0040 		orr	r0, r3, r0, lsl #16
  54 000c 7047     		bx	lr
  56              		.section	.text.RTC_ByteToBcd2,"ax",%progbits
  57              		.align	1
  58              		.thumb
  59              		.thumb_func
  61              	RTC_ByteToBcd2:
  62              		@ args = 0, pretend = 0, frame = 0
ARM GAS  /tmp/ccNpLmFB.s 			page 2


  63              		@ frame_needed = 0, uses_anonymous_args = 0
  64              		@ link register save eliminated.
  65 0000 0023     		movs	r3, #0
  66              	.L6:
  67 0002 0928     		cmp	r0, #9
  68 0004 03D9     		bls	.L9
  69 0006 0A38     		subs	r0, r0, #10
  70 0008 0133     		adds	r3, r3, #1
  71 000a C0B2     		uxtb	r0, r0
  72 000c F9E7     		b	.L6
  73              	.L9:
  74 000e 40EA0310 		orr	r0, r0, r3, lsl #4
  75 0012 C0B2     		uxtb	r0, r0
  76 0014 7047     		bx	lr
  78              		.section	.text.RTC_Bcd2ToByte,"ax",%progbits
  79              		.align	1
  80              		.thumb
  81              		.thumb_func
  83              	RTC_Bcd2ToByte:
  84              		@ args = 0, pretend = 0, frame = 0
  85              		@ frame_needed = 0, uses_anonymous_args = 0
  86              		@ link register save eliminated.
  87 0000 0309     		lsrs	r3, r0, #4
  88 0002 0A22     		movs	r2, #10
  89 0004 00F00F00 		and	r0, r0, #15
  90 0008 02FB0300 		mla	r0, r2, r3, r0
  91 000c C0B2     		uxtb	r0, r0
  92 000e 7047     		bx	lr
  94              		.section	.text.RTC_WeekDayNum,"ax",%progbits
  95              		.align	1
  96              		.thumb
  97              		.thumb_func
  99              	RTC_WeekDayNum:
 100              		@ args = 0, pretend = 0, frame = 0
 101              		@ frame_needed = 0, uses_anonymous_args = 0
 102 0000 0229     		cmp	r1, #2
 103 0002 70B5     		push	{r4, r5, r6, lr}
 104 0004 00F5FA66 		add	r6, r0, #2000
 105 0008 4FF01704 		mov	r4, #23
 106 000c 14D8     		bhi	.L12
 107 000e 4C43     		muls	r4, r1, r4
 108 0010 0921     		movs	r1, #9
 109 0012 B4FBF1F4 		udiv	r4, r4, r1
 110 0016 0432     		adds	r2, r2, #4
 111 0018 00F2CF70 		addw	r0, r0, #1999
 112 001c 3244     		add	r2, r2, r6
 113 001e 4FF4C871 		mov	r1, #400
 114 0022 B0FBF1F1 		udiv	r1, r0, r1
 115 0026 6423     		movs	r3, #100
 116 0028 2244     		add	r2, r2, r4
 117 002a 02EB9002 		add	r2, r2, r0, lsr #2
 118 002e B0FBF3F0 		udiv	r0, r0, r3
 119 0032 0A44     		add	r2, r2, r1
 120 0034 131A     		subs	r3, r2, r0
 121 0036 11E0     		b	.L14
 122              	.L12:
 123 0038 4C43     		muls	r4, r1, r4
ARM GAS  /tmp/ccNpLmFB.s 			page 3


 124 003a 0921     		movs	r1, #9
 125 003c B4FBF1F4 		udiv	r4, r4, r1
 126 0040 951C     		adds	r5, r2, #2
 127 0042 3544     		add	r5, r5, r6
 128 0044 2919     		adds	r1, r5, r4
 129 0046 4FF4C874 		mov	r4, #400
 130 004a B6FBF4F4 		udiv	r4, r6, r4
 131 004e 6420     		movs	r0, #100
 132 0050 B6FBF0F0 		udiv	r0, r6, r0
 133 0054 01EB9601 		add	r1, r1, r6, lsr #2
 134 0058 2144     		add	r1, r1, r4
 135 005a 0B1A     		subs	r3, r1, r0
 136              	.L14:
 137 005c 0720     		movs	r0, #7
 138 005e B3FBF0F0 		udiv	r0, r3, r0
 139 0062 C0EBC000 		rsb	r0, r0, r0, lsl #3
 140 0066 181A     		subs	r0, r3, r0
 141 0068 C0B2     		uxtb	r0, r0
 142 006a 70BD     		pop	{r4, r5, r6, pc}
 144              		.section	.text.RTC_EnterInitMode,"ax",%progbits
 145              		.align	1
 146              		.thumb
 147              		.thumb_func
 149              	RTC_EnterInitMode:
 150              		@ args = 0, pretend = 0, frame = 0
 151              		@ frame_needed = 0, uses_anonymous_args = 0
 152 0000 38B5     		push	{r3, r4, r5, lr}
 153 0002 0446     		mov	r4, r0
 154 0004 FFF7FEFF 		bl	HAL_GetTick
 155 0008 0546     		mov	r5, r0
 156              	.L16:
 157 000a 2368     		ldr	r3, [r4]
 158 000c 5A68     		ldr	r2, [r3, #4]
 159 000e 9206     		lsls	r2, r2, #26
 160 0010 07D4     		bmi	.L20
 161 0012 FFF7FEFF 		bl	HAL_GetTick
 162 0016 401B     		subs	r0, r0, r5
 163 0018 B0F57A7F 		cmp	r0, #1000
 164 001c F5D9     		bls	.L16
 165 001e 0320     		movs	r0, #3
 166 0020 38BD     		pop	{r3, r4, r5, pc}
 167              	.L20:
 168 0022 5A68     		ldr	r2, [r3, #4]
 169 0024 0020     		movs	r0, #0
 170 0026 42F01002 		orr	r2, r2, #16
 171 002a 5A60     		str	r2, [r3, #4]
 172 002c 38BD     		pop	{r3, r4, r5, pc}
 174              		.section	.text.RTC_ExitInitMode,"ax",%progbits
 175              		.align	1
 176              		.thumb
 177              		.thumb_func
 179              	RTC_ExitInitMode:
 180              		@ args = 0, pretend = 0, frame = 0
 181              		@ frame_needed = 0, uses_anonymous_args = 0
 182 0000 0268     		ldr	r2, [r0]
 183 0002 38B5     		push	{r3, r4, r5, lr}
 184 0004 5368     		ldr	r3, [r2, #4]
ARM GAS  /tmp/ccNpLmFB.s 			page 4


 185 0006 0446     		mov	r4, r0
 186 0008 23F01003 		bic	r3, r3, #16
 187 000c 5360     		str	r3, [r2, #4]
 188 000e FFF7FEFF 		bl	HAL_GetTick
 189 0012 0546     		mov	r5, r0
 190              	.L22:
 191 0014 2368     		ldr	r3, [r4]
 192 0016 5B68     		ldr	r3, [r3, #4]
 193 0018 9B06     		lsls	r3, r3, #26
 194 001a 07D4     		bmi	.L26
 195 001c FFF7FEFF 		bl	HAL_GetTick
 196 0020 401B     		subs	r0, r0, r5
 197 0022 B0F57A7F 		cmp	r0, #1000
 198 0026 F5D9     		bls	.L22
 199 0028 0320     		movs	r0, #3
 200 002a 38BD     		pop	{r3, r4, r5, pc}
 201              	.L26:
 202 002c 0020     		movs	r0, #0
 203 002e 38BD     		pop	{r3, r4, r5, pc}
 205              		.section	.text.RTC_WriteTimeCounter,"ax",%progbits
 206              		.align	1
 207              		.thumb
 208              		.thumb_func
 210              	RTC_WriteTimeCounter:
 211              		@ args = 0, pretend = 0, frame = 0
 212              		@ frame_needed = 0, uses_anonymous_args = 0
 213 0000 38B5     		push	{r3, r4, r5, lr}
 214 0002 0546     		mov	r5, r0
 215 0004 0C46     		mov	r4, r1
 216 0006 FFF7FEFF 		bl	RTC_EnterInitMode
 217 000a 58B9     		cbnz	r0, .L29
 218 000c 2B68     		ldr	r3, [r5]
 219 000e 220C     		lsrs	r2, r4, #16
 220 0010 A4B2     		uxth	r4, r4
 221 0012 9A61     		str	r2, [r3, #24]
 222 0014 2846     		mov	r0, r5
 223 0016 DC61     		str	r4, [r3, #28]
 224 0018 FFF7FEFF 		bl	RTC_ExitInitMode
 225 001c 0030     		adds	r0, r0, #0
 226 001e 18BF     		it	ne
 227 0020 0120     		movne	r0, #1
 228 0022 38BD     		pop	{r3, r4, r5, pc}
 229              	.L29:
 230 0024 0120     		movs	r0, #1
 231 0026 38BD     		pop	{r3, r4, r5, pc}
 233              		.section	.text.RTC_WriteAlarmCounter,"ax",%progbits
 234              		.align	1
 235              		.thumb
 236              		.thumb_func
 238              	RTC_WriteAlarmCounter:
 239              		@ args = 0, pretend = 0, frame = 0
 240              		@ frame_needed = 0, uses_anonymous_args = 0
 241 0000 38B5     		push	{r3, r4, r5, lr}
 242 0002 0546     		mov	r5, r0
 243 0004 0C46     		mov	r4, r1
 244 0006 FFF7FEFF 		bl	RTC_EnterInitMode
 245 000a 58B9     		cbnz	r0, .L32
ARM GAS  /tmp/ccNpLmFB.s 			page 5


 246 000c 2B68     		ldr	r3, [r5]
 247 000e 220C     		lsrs	r2, r4, #16
 248 0010 A4B2     		uxth	r4, r4
 249 0012 1A62     		str	r2, [r3, #32]
 250 0014 2846     		mov	r0, r5
 251 0016 5C62     		str	r4, [r3, #36]
 252 0018 FFF7FEFF 		bl	RTC_ExitInitMode
 253 001c 0030     		adds	r0, r0, #0
 254 001e 18BF     		it	ne
 255 0020 0120     		movne	r0, #1
 256 0022 38BD     		pop	{r3, r4, r5, pc}
 257              	.L32:
 258 0024 0120     		movs	r0, #1
 259 0026 38BD     		pop	{r3, r4, r5, pc}
 261              		.section	.text.HAL_RTC_MspInit,"ax",%progbits
 262              		.align	1
 263              		.weak	HAL_RTC_MspInit
 264              		.thumb
 265              		.thumb_func
 267              	HAL_RTC_MspInit:
 268              		@ args = 0, pretend = 0, frame = 0
 269              		@ frame_needed = 0, uses_anonymous_args = 0
 270              		@ link register save eliminated.
 271 0000 7047     		bx	lr
 273              		.section	.text.HAL_RTC_MspDeInit,"ax",%progbits
 274              		.align	1
 275              		.weak	HAL_RTC_MspDeInit
 276              		.thumb
 277              		.thumb_func
 279              	HAL_RTC_MspDeInit:
 280              		@ args = 0, pretend = 0, frame = 0
 281              		@ frame_needed = 0, uses_anonymous_args = 0
 282              		@ link register save eliminated.
 283 0000 7047     		bx	lr
 285              		.section	.text.HAL_RTC_SetTime,"ax",%progbits
 286              		.align	1
 287              		.global	HAL_RTC_SetTime
 288              		.thumb
 289              		.thumb_func
 291              	HAL_RTC_SetTime:
 292              		@ args = 0, pretend = 0, frame = 0
 293              		@ frame_needed = 0, uses_anonymous_args = 0
 294 0000 F8B5     		push	{r3, r4, r5, r6, r7, lr}
 295 0002 0446     		mov	r4, r0
 296 0004 0028     		cmp	r0, #0
 297 0006 4DD0     		beq	.L42
 298 0008 0029     		cmp	r1, #0
 299 000a 4BD0     		beq	.L42
 300 000c 037C     		ldrb	r3, [r0, #16]	@ zero_extendqisi2
 301 000e 0226     		movs	r6, #2
 302 0010 012B     		cmp	r3, #1
 303 0012 48D0     		beq	.L36
 304 0014 0123     		movs	r3, #1
 305 0016 0374     		strb	r3, [r0, #16]
 306 0018 4674     		strb	r6, [r0, #17]
 307 001a 0878     		ldrb	r0, [r1]	@ zero_extendqisi2
 308 001c 4D78     		ldrb	r5, [r1, #1]	@ zero_extendqisi2
ARM GAS  /tmp/ccNpLmFB.s 			page 6


 309 001e 8F78     		ldrb	r7, [r1, #2]	@ zero_extendqisi2
 310 0020 3AB9     		cbnz	r2, .L37
 311 0022 3C23     		movs	r3, #60
 312 0024 6B43     		muls	r3, r5, r3
 313 0026 4FF46165 		mov	r5, #3600
 314 002a 05FB0030 		mla	r0, r5, r0, r3
 315 002e C519     		adds	r5, r0, r7
 316 0030 0FE0     		b	.L38
 317              	.L37:
 318 0032 FFF7FEFF 		bl	RTC_Bcd2ToByte
 319 0036 0646     		mov	r6, r0
 320 0038 2846     		mov	r0, r5
 321 003a FFF7FEFF 		bl	RTC_Bcd2ToByte
 322 003e 3C23     		movs	r3, #60
 323 0040 5843     		muls	r0, r3, r0
 324 0042 4FF46165 		mov	r5, #3600
 325 0046 05FB0605 		mla	r5, r5, r6, r0
 326 004a 3846     		mov	r0, r7
 327 004c FFF7FEFF 		bl	RTC_Bcd2ToByte
 328 0050 0544     		add	r5, r5, r0
 329              	.L38:
 330 0052 2046     		mov	r0, r4
 331 0054 2946     		mov	r1, r5
 332 0056 FFF7FEFF 		bl	RTC_WriteTimeCounter
 333 005a 0646     		mov	r6, r0
 334 005c 20B1     		cbz	r0, .L39
 335 005e 0423     		movs	r3, #4
 336 0060 6374     		strb	r3, [r4, #17]
 337 0062 0023     		movs	r3, #0
 338 0064 2374     		strb	r3, [r4, #16]
 339 0066 1DE0     		b	.L42
 340              	.L39:
 341 0068 2268     		ldr	r2, [r4]
 342 006a 2046     		mov	r0, r4
 343 006c 5368     		ldr	r3, [r2, #4]
 344 006e 23F00503 		bic	r3, r3, #5
 345 0072 5360     		str	r3, [r2, #4]
 346 0074 FFF7FEFF 		bl	RTC_ReadAlarmCounter
 347 0078 431C     		adds	r3, r0, #1
 348 007a 0146     		mov	r1, r0
 349 007c 0DD0     		beq	.L40
 350 007e A842     		cmp	r0, r5
 351 0080 0BD2     		bcs	.L40
 352 0082 01F5A831 		add	r1, r1, #86016
 353 0086 2046     		mov	r0, r4
 354 0088 01F5C071 		add	r1, r1, #384
 355 008c FFF7FEFF 		bl	RTC_WriteAlarmCounter
 356 0090 18B1     		cbz	r0, .L40
 357 0092 0423     		movs	r3, #4
 358 0094 6374     		strb	r3, [r4, #17]
 359 0096 2674     		strb	r6, [r4, #16]
 360 0098 04E0     		b	.L42
 361              	.L40:
 362 009a 0123     		movs	r3, #1
 363 009c 6374     		strb	r3, [r4, #17]
 364 009e 0023     		movs	r3, #0
 365 00a0 2374     		strb	r3, [r4, #16]
ARM GAS  /tmp/ccNpLmFB.s 			page 7


 366 00a2 00E0     		b	.L36
 367              	.L42:
 368 00a4 0126     		movs	r6, #1
 369              	.L36:
 370 00a6 3046     		mov	r0, r6
 371 00a8 F8BD     		pop	{r3, r4, r5, r6, r7, pc}
 373              		.section	.text.HAL_RTC_GetTime,"ax",%progbits
 374              		.align	1
 375              		.global	HAL_RTC_GetTime
 376              		.thumb
 377              		.thumb_func
 379              	HAL_RTC_GetTime:
 380              		@ args = 0, pretend = 0, frame = 0
 381              		@ frame_needed = 0, uses_anonymous_args = 0
 382 0000 2DE9F843 		push	{r3, r4, r5, r6, r7, r8, r9, lr}
 383 0004 0D46     		mov	r5, r1
 384 0006 1746     		mov	r7, r2
 385 0008 0446     		mov	r4, r0
 386 000a 10B9     		cbnz	r0, .L51
 387              	.L53:
 388 000c 0120     		movs	r0, #1
 389 000e BDE8F883 		pop	{r3, r4, r5, r6, r7, r8, r9, pc}
 390              	.L51:
 391 0012 0029     		cmp	r1, #0
 392 0014 FAD0     		beq	.L53
 393 0016 0368     		ldr	r3, [r0]
 394 0018 5B68     		ldr	r3, [r3, #4]
 395 001a 5E07     		lsls	r6, r3, #29
 396 001c F6D4     		bmi	.L53
 397 001e FFF7FEFF 		bl	RTC_ReadTimeCounter
 398 0022 4FF46162 		mov	r2, #3600
 399 0026 B0FBF2F3 		udiv	r3, r0, r2
 400 002a 02FB1302 		mls	r2, r2, r3, r0
 401 002e 8146     		mov	r9, r0
 402 0030 3C20     		movs	r0, #60
 403 0032 B2FBF0F1 		udiv	r1, r2, r0
 404 0036 00FB1122 		mls	r2, r0, r1, r2
 405 003a 172B     		cmp	r3, #23
 406 003c 6970     		strb	r1, [r5, #1]
 407 003e AA70     		strb	r2, [r5, #2]
 408 0040 72D9     		bls	.L54
 409 0042 1822     		movs	r2, #24
 410 0044 B3FBF2F8 		udiv	r8, r3, r2
 411 0048 02FB1833 		mls	r3, r2, r8, r3
 412 004c 2046     		mov	r0, r4
 413 004e 2B70     		strb	r3, [r5]
 414 0050 FFF7FEFF 		bl	RTC_ReadAlarmCounter
 415 0054 0646     		mov	r6, r0
 416 0056 0130     		adds	r0, r0, #1
 417 0058 05D0     		beq	.L55
 418 005a 4E45     		cmp	r6, r9
 419 005c 8CBF     		ite	hi
 420 005e C9EB0606 		rsbhi	r6, r9, r6
 421 0062 4FF0FF36 		movls	r6, #-1
 422              	.L55:
 423 0066 3E4B     		ldr	r3, .L107
 424 0068 2046     		mov	r0, r4
ARM GAS  /tmp/ccNpLmFB.s 			page 8


 425 006a 03FB1899 		mls	r9, r3, r8, r9
 426 006e 4946     		mov	r1, r9
 427 0070 FFF7FEFF 		bl	RTC_WriteTimeCounter
 428 0074 0028     		cmp	r0, #0
 429 0076 C9D1     		bne	.L53
 430 0078 711C     		adds	r1, r6, #1
 431 007a 2046     		mov	r0, r4
 432 007c 02D0     		beq	.L56
 433 007e 06EB0901 		add	r1, r6, r9
 434 0082 00E0     		b	.L101
 435              	.L56:
 436 0084 3146     		mov	r1, r6
 437              	.L101:
 438 0086 FFF7FEFF 		bl	RTC_WriteAlarmCounter
 439 008a 0028     		cmp	r0, #0
 440 008c BED1     		bne	.L53
 441 008e E07B     		ldrb	r0, [r4, #15]	@ zero_extendqisi2
 442 0090 617B     		ldrb	r1, [r4, #13]	@ zero_extendqisi2
 443 0092 A27B     		ldrb	r2, [r4, #14]	@ zero_extendqisi2
 444 0094 0026     		movs	r6, #0
 445              	.L57:
 446 0096 21F00203 		bic	r3, r1, #2
 447 009a 012B     		cmp	r3, #1
 448 009c 55D0     		beq	.L59
 449 009e 0529     		cmp	r1, #5
 450 00a0 53D0     		beq	.L59
 451 00a2 A1F1070E 		sub	lr, r1, #7
 452 00a6 BEF1010F 		cmp	lr, #1
 453 00aa 4ED9     		bls	.L59
 454 00ac 0A29     		cmp	r1, #10
 455 00ae 4CD0     		beq	.L59
 456 00b0 0C29     		cmp	r1, #12
 457 00b2 4FD0     		beq	.L106
 458 00b4 042B     		cmp	r3, #4
 459 00b6 01D0     		beq	.L63
 460 00b8 092B     		cmp	r3, #9
 461 00ba 01D1     		bne	.L64
 462              	.L63:
 463 00bc 1D2A     		cmp	r2, #29
 464 00be 45E0     		b	.L105
 465              	.L64:
 466 00c0 0229     		cmp	r1, #2
 467 00c2 25D1     		bne	.L62
 468 00c4 1B2A     		cmp	r2, #27
 469 00c6 01D8     		bhi	.L66
 470              	.L102:
 471 00c8 0132     		adds	r2, r2, #1
 472 00ca 21E0     		b	.L62
 473              	.L66:
 474 00cc 1C2A     		cmp	r2, #28
 475 00ce 18D1     		bne	.L67
 476 00d0 83B2     		uxth	r3, r0
 477 00d2 9A07     		lsls	r2, r3, #30
 478 00d4 1AD1     		bne	.L76
 479 00d6 4FF0640E 		mov	lr, #100
 480 00da B3FBFEF2 		udiv	r2, r3, lr
 481 00de 0EFB1232 		mls	r2, lr, r2, r3
ARM GAS  /tmp/ccNpLmFB.s 			page 9


 482 00e2 92B2     		uxth	r2, r2
 483 00e4 82B9     		cbnz	r2, .L74
 484 00e6 4FF4C871 		mov	r1, #400
 485 00ea B3FBF1F2 		udiv	r2, r3, r1
 486 00ee 01FB1233 		mls	r3, r1, r2, r3
 487 00f2 9BB2     		uxth	r3, r3
 488 00f4 002B     		cmp	r3, #0
 489 00f6 13BF     		iteet	ne
 490 00f8 0122     		movne	r2, #1
 491 00fa 1D22     		moveq	r2, #29
 492 00fc 0221     		moveq	r1, #2
 493 00fe 0321     		movne	r1, #3
 494 0100 06E0     		b	.L62
 495              	.L67:
 496 0102 1D2A     		cmp	r2, #29
 497 0104 04D1     		bne	.L62
 498 0106 01E0     		b	.L76
 499              	.L74:
 500 0108 1D22     		movs	r2, #29
 501 010a 01E0     		b	.L62
 502              	.L76:
 503 010c 0122     		movs	r2, #1
 504 010e 0321     		movs	r1, #3
 505              	.L62:
 506 0110 0136     		adds	r6, r6, #1
 507 0112 4645     		cmp	r6, r8
 508 0114 BFD1     		bne	.L57
 509 0116 C9B2     		uxtb	r1, r1
 510 0118 D2B2     		uxtb	r2, r2
 511 011a E073     		strb	r0, [r4, #15]
 512 011c 6173     		strb	r1, [r4, #13]
 513 011e A273     		strb	r2, [r4, #14]
 514 0120 FFF7FEFF 		bl	RTC_WeekDayNum
 515 0124 2073     		strb	r0, [r4, #12]
 516 0126 00E0     		b	.L68
 517              	.L54:
 518 0128 2B70     		strb	r3, [r5]
 519              	.L68:
 520 012a 5FB1     		cbz	r7, .L103
 521 012c 2878     		ldrb	r0, [r5]	@ zero_extendqisi2
 522 012e FFF7FEFF 		bl	RTC_ByteToBcd2
 523 0132 2870     		strb	r0, [r5]
 524 0134 6878     		ldrb	r0, [r5, #1]	@ zero_extendqisi2
 525 0136 FFF7FEFF 		bl	RTC_ByteToBcd2
 526 013a 6870     		strb	r0, [r5, #1]
 527 013c A878     		ldrb	r0, [r5, #2]	@ zero_extendqisi2
 528 013e FFF7FEFF 		bl	RTC_ByteToBcd2
 529 0142 A870     		strb	r0, [r5, #2]
 530              	.L103:
 531 0144 0020     		movs	r0, #0
 532 0146 BDE8F883 		pop	{r3, r4, r5, r6, r7, r8, r9, pc}
 533              	.L59:
 534 014a 1E2A     		cmp	r2, #30
 535              	.L105:
 536 014c BCD9     		bls	.L102
 537 014e 0131     		adds	r1, r1, #1
 538 0150 0122     		movs	r2, #1
ARM GAS  /tmp/ccNpLmFB.s 			page 10


 539 0152 DDE7     		b	.L62
 540              	.L106:
 541 0154 1E2A     		cmp	r2, #30
 542 0156 B7D9     		bls	.L102
 543 0158 0122     		movs	r2, #1
 544 015a 0130     		adds	r0, r0, #1
 545 015c 1146     		mov	r1, r2
 546 015e D7E7     		b	.L62
 547              	.L108:
 548              		.align	2
 549              	.L107:
 550 0160 80510100 		.word	86400
 552              		.section	.text.HAL_RTC_SetDate,"ax",%progbits
 553              		.align	1
 554              		.global	HAL_RTC_SetDate
 555              		.thumb
 556              		.thumb_func
 558              	HAL_RTC_SetDate:
 559              		@ args = 0, pretend = 0, frame = 0
 560              		@ frame_needed = 0, uses_anonymous_args = 0
 561 0000 F8B5     		push	{r3, r4, r5, r6, r7, lr}
 562 0002 0D46     		mov	r5, r1
 563 0004 0446     		mov	r4, r0
 564 0006 0028     		cmp	r0, #0
 565 0008 55D0     		beq	.L116
 566 000a 0029     		cmp	r1, #0
 567 000c 53D0     		beq	.L116
 568 000e 037C     		ldrb	r3, [r0, #16]	@ zero_extendqisi2
 569 0010 0220     		movs	r0, #2
 570 0012 012B     		cmp	r3, #1
 571 0014 50D0     		beq	.L110
 572 0016 0123     		movs	r3, #1
 573 0018 2374     		strb	r3, [r4, #16]
 574 001a 6074     		strb	r0, [r4, #17]
 575 001c C878     		ldrb	r0, [r1, #3]	@ zero_extendqisi2
 576 001e 4F78     		ldrb	r7, [r1, #1]	@ zero_extendqisi2
 577 0020 8E78     		ldrb	r6, [r1, #2]	@ zero_extendqisi2
 578 0022 1AB9     		cbnz	r2, .L111
 579 0024 E073     		strb	r0, [r4, #15]
 580 0026 6773     		strb	r7, [r4, #13]
 581 0028 A673     		strb	r6, [r4, #14]
 582 002a 0AE0     		b	.L112
 583              	.L111:
 584 002c FFF7FEFF 		bl	RTC_Bcd2ToByte
 585 0030 E073     		strb	r0, [r4, #15]
 586 0032 3846     		mov	r0, r7
 587 0034 FFF7FEFF 		bl	RTC_Bcd2ToByte
 588 0038 6073     		strb	r0, [r4, #13]
 589 003a 3046     		mov	r0, r6
 590 003c FFF7FEFF 		bl	RTC_Bcd2ToByte
 591 0040 A073     		strb	r0, [r4, #14]
 592              	.L112:
 593 0042 E07B     		ldrb	r0, [r4, #15]	@ zero_extendqisi2
 594 0044 617B     		ldrb	r1, [r4, #13]	@ zero_extendqisi2
 595 0046 A27B     		ldrb	r2, [r4, #14]	@ zero_extendqisi2
 596 0048 FFF7FEFF 		bl	RTC_WeekDayNum
 597 004c 2073     		strb	r0, [r4, #12]
ARM GAS  /tmp/ccNpLmFB.s 			page 11


 598 004e 2870     		strb	r0, [r5]
 599 0050 2046     		mov	r0, r4
 600 0052 FFF7FEFF 		bl	RTC_ReadTimeCounter
 601 0056 4FF46163 		mov	r3, #3600
 602 005a B0FBF3F3 		udiv	r3, r0, r3
 603 005e 182B     		cmp	r3, #24
 604 0060 24D9     		bls	.L113
 605 0062 1825     		movs	r5, #24
 606 0064 B3FBF5F3 		udiv	r3, r3, r5
 607 0068 144D     		ldr	r5, .L124
 608 006a 05FB1305 		mls	r5, r5, r3, r0
 609 006e 2046     		mov	r0, r4
 610 0070 2946     		mov	r1, r5
 611 0072 FFF7FEFF 		bl	RTC_WriteTimeCounter
 612 0076 0646     		mov	r6, r0
 613 0078 20B1     		cbz	r0, .L114
 614 007a 0423     		movs	r3, #4
 615 007c 6374     		strb	r3, [r4, #17]
 616 007e 0023     		movs	r3, #0
 617 0080 2374     		strb	r3, [r4, #16]
 618 0082 18E0     		b	.L116
 619              	.L114:
 620 0084 2046     		mov	r0, r4
 621 0086 FFF7FEFF 		bl	RTC_ReadAlarmCounter
 622 008a 431C     		adds	r3, r0, #1
 623 008c 0146     		mov	r1, r0
 624 008e 0DD0     		beq	.L113
 625 0090 A842     		cmp	r0, r5
 626 0092 0BD2     		bcs	.L113
 627 0094 01F5A831 		add	r1, r1, #86016
 628 0098 2046     		mov	r0, r4
 629 009a 01F5C071 		add	r1, r1, #384
 630 009e FFF7FEFF 		bl	RTC_WriteAlarmCounter
 631 00a2 18B1     		cbz	r0, .L113
 632 00a4 0423     		movs	r3, #4
 633 00a6 6374     		strb	r3, [r4, #17]
 634 00a8 2674     		strb	r6, [r4, #16]
 635 00aa 04E0     		b	.L116
 636              	.L113:
 637 00ac 0123     		movs	r3, #1
 638 00ae 0020     		movs	r0, #0
 639 00b0 6374     		strb	r3, [r4, #17]
 640 00b2 2074     		strb	r0, [r4, #16]
 641 00b4 F8BD     		pop	{r3, r4, r5, r6, r7, pc}
 642              	.L116:
 643 00b6 0120     		movs	r0, #1
 644              	.L110:
 645 00b8 F8BD     		pop	{r3, r4, r5, r6, r7, pc}
 646              	.L125:
 647 00ba 00BF     		.align	2
 648              	.L124:
 649 00bc 80510100 		.word	86400
 651              		.section	.text.HAL_RTC_GetDate,"ax",%progbits
 652              		.align	1
 653              		.global	HAL_RTC_GetDate
 654              		.thumb
 655              		.thumb_func
ARM GAS  /tmp/ccNpLmFB.s 			page 12


 657              	HAL_RTC_GetDate:
 658              		@ args = 0, pretend = 0, frame = 8
 659              		@ frame_needed = 0, uses_anonymous_args = 0
 660 0000 2DE9F341 		push	{r0, r1, r4, r5, r6, r7, r8, lr}
 661 0004 9046     		mov	r8, r2
 662 0006 0022     		movs	r2, #0
 663 0008 0C46     		mov	r4, r1
 664 000a ADF80420 		strh	r2, [sp, #4]	@ movhi
 665 000e 8DF80620 		strb	r2, [sp, #6]
 666 0012 0546     		mov	r5, r0
 667 0014 08B9     		cbnz	r0, .L127
 668              	.L129:
 669 0016 0126     		movs	r6, #1
 670 0018 1DE0     		b	.L128
 671              	.L127:
 672 001a 0029     		cmp	r1, #0
 673 001c FBD0     		beq	.L129
 674 001e 01A9     		add	r1, sp, #4
 675 0020 FFF7FEFF 		bl	HAL_RTC_GetTime
 676 0024 0646     		mov	r6, r0
 677 0026 0028     		cmp	r0, #0
 678 0028 F5D1     		bne	.L129
 679 002a 2B7B     		ldrb	r3, [r5, #12]	@ zero_extendqisi2
 680 002c E87B     		ldrb	r0, [r5, #15]	@ zero_extendqisi2
 681 002e 6F7B     		ldrb	r7, [r5, #13]	@ zero_extendqisi2
 682 0030 AD7B     		ldrb	r5, [r5, #14]	@ zero_extendqisi2
 683 0032 2370     		strb	r3, [r4]
 684 0034 E070     		strb	r0, [r4, #3]
 685 0036 6770     		strb	r7, [r4, #1]
 686 0038 A570     		strb	r5, [r4, #2]
 687 003a B8F1000F 		cmp	r8, #0
 688 003e 0AD0     		beq	.L128
 689 0040 FFF7FEFF 		bl	RTC_ByteToBcd2
 690 0044 E070     		strb	r0, [r4, #3]
 691 0046 3846     		mov	r0, r7
 692 0048 FFF7FEFF 		bl	RTC_ByteToBcd2
 693 004c 6070     		strb	r0, [r4, #1]
 694 004e 2846     		mov	r0, r5
 695 0050 FFF7FEFF 		bl	RTC_ByteToBcd2
 696 0054 A070     		strb	r0, [r4, #2]
 697              	.L128:
 698 0056 3046     		mov	r0, r6
 699 0058 02B0     		add	sp, sp, #8
 700              		@ sp needed
 701 005a BDE8F081 		pop	{r4, r5, r6, r7, r8, pc}
 703              		.section	.text.HAL_RTC_SetAlarm,"ax",%progbits
 704              		.align	1
 705              		.global	HAL_RTC_SetAlarm
 706              		.thumb
 707              		.thumb_func
 709              	HAL_RTC_SetAlarm:
 710              		@ args = 0, pretend = 0, frame = 8
 711              		@ frame_needed = 0, uses_anonymous_args = 0
 712 0000 2DE9F74F 		push	{r0, r1, r2, r4, r5, r6, r7, r8, r9, r10, fp, lr}
 713 0004 1446     		mov	r4, r2
 714 0006 0022     		movs	r2, #0
 715 0008 0D46     		mov	r5, r1
ARM GAS  /tmp/ccNpLmFB.s 			page 13


 716 000a ADF80420 		strh	r2, [sp, #4]	@ movhi
 717 000e 8DF80620 		strb	r2, [sp, #6]
 718 0012 0646     		mov	r6, r0
 719 0014 0028     		cmp	r0, #0
 720 0016 43D0     		beq	.L148
 721 0018 0029     		cmp	r1, #0
 722 001a 41D0     		beq	.L148
 723 001c 037C     		ldrb	r3, [r0, #16]	@ zero_extendqisi2
 724 001e 012B     		cmp	r3, #1
 725 0020 4FF00203 		mov	r3, #2
 726 0024 42D0     		beq	.L144
 727 0026 0121     		movs	r1, #1
 728 0028 0174     		strb	r1, [r0, #16]
 729 002a 4374     		strb	r3, [r0, #17]
 730 002c 01A9     		add	r1, sp, #4
 731 002e FFF7FEFF 		bl	HAL_RTC_GetTime
 732 0032 A8BB     		cbnz	r0, .L148
 733 0034 9DF80590 		ldrb	r9, [sp, #5]	@ zero_extendqisi2
 734 0038 3C27     		movs	r7, #60
 735 003a 07FB09F9 		mul	r9, r7, r9
 736 003e 9DF80420 		ldrb	r2, [sp, #4]	@ zero_extendqisi2
 737 0042 4FF4616B 		mov	fp, #3600
 738 0046 0BFB0293 		mla	r3, fp, r2, r9
 739 004a 9DF80690 		ldrb	r9, [sp, #6]	@ zero_extendqisi2
 740 004e 2878     		ldrb	r0, [r5]	@ zero_extendqisi2
 741 0050 9944     		add	r9, r9, r3
 742 0052 95F80180 		ldrb	r8, [r5, #1]	@ zero_extendqisi2
 743 0056 95F802A0 		ldrb	r10, [r5, #2]	@ zero_extendqisi2
 744 005a 34B9     		cbnz	r4, .L140
 745 005c 07FB08F7 		mul	r7, r7, r8
 746 0060 0BFB0070 		mla	r0, fp, r0, r7
 747 0064 00EB0A01 		add	r1, r0, r10
 748 0068 0CE0     		b	.L141
 749              	.L140:
 750 006a FFF7FEFF 		bl	RTC_Bcd2ToByte
 751 006e 0546     		mov	r5, r0
 752 0070 4046     		mov	r0, r8
 753 0072 FFF7FEFF 		bl	RTC_Bcd2ToByte
 754 0076 7843     		muls	r0, r7, r0
 755 0078 0BFB0504 		mla	r4, fp, r5, r0
 756 007c 5046     		mov	r0, r10
 757 007e FFF7FEFF 		bl	RTC_Bcd2ToByte
 758 0082 2118     		adds	r1, r4, r0
 759              	.L141:
 760 0084 4945     		cmp	r1, r9
 761 0086 3CBF     		itt	cc
 762 0088 01F5A831 		addcc	r1, r1, #86016
 763 008c 01F5C071 		addcc	r1, r1, #384
 764 0090 3046     		mov	r0, r6
 765 0092 FFF7FEFF 		bl	RTC_WriteAlarmCounter
 766 0096 28B1     		cbz	r0, .L143
 767 0098 0423     		movs	r3, #4
 768 009a 7374     		strb	r3, [r6, #17]
 769 009c 0023     		movs	r3, #0
 770 009e 3374     		strb	r3, [r6, #16]
 771              	.L148:
 772 00a0 0120     		movs	r0, #1
ARM GAS  /tmp/ccNpLmFB.s 			page 14


 773 00a2 04E0     		b	.L138
 774              	.L143:
 775 00a4 0123     		movs	r3, #1
 776 00a6 7374     		strb	r3, [r6, #17]
 777 00a8 3074     		strb	r0, [r6, #16]
 778 00aa 00E0     		b	.L138
 779              	.L144:
 780 00ac 1846     		mov	r0, r3
 781              	.L138:
 782 00ae 03B0     		add	sp, sp, #12
 783              		@ sp needed
 784 00b0 BDE8F08F 		pop	{r4, r5, r6, r7, r8, r9, r10, fp, pc}
 786              		.section	.text.HAL_RTC_SetAlarm_IT,"ax",%progbits
 787              		.align	1
 788              		.global	HAL_RTC_SetAlarm_IT
 789              		.thumb
 790              		.thumb_func
 792              	HAL_RTC_SetAlarm_IT:
 793              		@ args = 0, pretend = 0, frame = 8
 794              		@ frame_needed = 0, uses_anonymous_args = 0
 795 0000 2DE9F74F 		push	{r0, r1, r2, r4, r5, r6, r7, r8, r9, r10, fp, lr}
 796 0004 1446     		mov	r4, r2
 797 0006 0022     		movs	r2, #0
 798 0008 0D46     		mov	r5, r1
 799 000a ADF80420 		strh	r2, [sp, #4]	@ movhi
 800 000e 8DF80620 		strb	r2, [sp, #6]
 801 0012 0646     		mov	r6, r0
 802 0014 0028     		cmp	r0, #0
 803 0016 43D0     		beq	.L161
 804 0018 0029     		cmp	r1, #0
 805 001a 41D0     		beq	.L161
 806 001c 037C     		ldrb	r3, [r0, #16]	@ zero_extendqisi2
 807 001e 012B     		cmp	r3, #1
 808 0020 4FF00203 		mov	r3, #2
 809 0024 53D0     		beq	.L157
 810 0026 0121     		movs	r1, #1
 811 0028 0174     		strb	r1, [r0, #16]
 812 002a 4374     		strb	r3, [r0, #17]
 813 002c 01A9     		add	r1, sp, #4
 814 002e FFF7FEFF 		bl	HAL_RTC_GetTime
 815 0032 A8BB     		cbnz	r0, .L161
 816 0034 9DF80590 		ldrb	r9, [sp, #5]	@ zero_extendqisi2
 817 0038 3C27     		movs	r7, #60
 818 003a 07FB09F9 		mul	r9, r7, r9
 819 003e 9DF80420 		ldrb	r2, [sp, #4]	@ zero_extendqisi2
 820 0042 4FF4616B 		mov	fp, #3600
 821 0046 0BFB0293 		mla	r3, fp, r2, r9
 822 004a 9DF80690 		ldrb	r9, [sp, #6]	@ zero_extendqisi2
 823 004e 2878     		ldrb	r0, [r5]	@ zero_extendqisi2
 824 0050 9944     		add	r9, r9, r3
 825 0052 95F80180 		ldrb	r8, [r5, #1]	@ zero_extendqisi2
 826 0056 95F802A0 		ldrb	r10, [r5, #2]	@ zero_extendqisi2
 827 005a 34B9     		cbnz	r4, .L153
 828 005c 07FB08F7 		mul	r7, r7, r8
 829 0060 0BFB0070 		mla	r0, fp, r0, r7
 830 0064 00EB0A01 		add	r1, r0, r10
 831 0068 0CE0     		b	.L154
ARM GAS  /tmp/ccNpLmFB.s 			page 15


 832              	.L153:
 833 006a FFF7FEFF 		bl	RTC_Bcd2ToByte
 834 006e 0546     		mov	r5, r0
 835 0070 4046     		mov	r0, r8
 836 0072 FFF7FEFF 		bl	RTC_Bcd2ToByte
 837 0076 7843     		muls	r0, r7, r0
 838 0078 0BFB0504 		mla	r4, fp, r5, r0
 839 007c 5046     		mov	r0, r10
 840 007e FFF7FEFF 		bl	RTC_Bcd2ToByte
 841 0082 2118     		adds	r1, r4, r0
 842              	.L154:
 843 0084 4945     		cmp	r1, r9
 844 0086 3CBF     		itt	cc
 845 0088 01F5A831 		addcc	r1, r1, #86016
 846 008c 01F5C071 		addcc	r1, r1, #384
 847 0090 3046     		mov	r0, r6
 848 0092 FFF7FEFF 		bl	RTC_WriteAlarmCounter
 849 0096 28B1     		cbz	r0, .L156
 850 0098 0423     		movs	r3, #4
 851 009a 7374     		strb	r3, [r6, #17]
 852 009c 0023     		movs	r3, #0
 853 009e 3374     		strb	r3, [r6, #16]
 854              	.L161:
 855 00a0 0120     		movs	r0, #1
 856 00a2 15E0     		b	.L151
 857              	.L156:
 858 00a4 3368     		ldr	r3, [r6]
 859 00a6 6FF00202 		mvn	r2, #2
 860 00aa 5A60     		str	r2, [r3, #4]
 861 00ac 1A68     		ldr	r2, [r3]
 862 00ae 42F00202 		orr	r2, r2, #2
 863 00b2 1A60     		str	r2, [r3]
 864 00b4 084B     		ldr	r3, .L162
 865 00b6 1A68     		ldr	r2, [r3]
 866 00b8 42F40032 		orr	r2, r2, #131072
 867 00bc 1A60     		str	r2, [r3]
 868 00be 9A68     		ldr	r2, [r3, #8]
 869 00c0 42F40032 		orr	r2, r2, #131072
 870 00c4 9A60     		str	r2, [r3, #8]
 871 00c6 0123     		movs	r3, #1
 872 00c8 7374     		strb	r3, [r6, #17]
 873 00ca 3074     		strb	r0, [r6, #16]
 874 00cc 00E0     		b	.L151
 875              	.L157:
 876 00ce 1846     		mov	r0, r3
 877              	.L151:
 878 00d0 03B0     		add	sp, sp, #12
 879              		@ sp needed
 880 00d2 BDE8F08F 		pop	{r4, r5, r6, r7, r8, r9, r10, fp, pc}
 881              	.L163:
 882 00d6 00BF     		.align	2
 883              	.L162:
 884 00d8 00040140 		.word	1073808384
 886              		.section	.text.HAL_RTC_GetAlarm,"ax",%progbits
 887              		.align	1
 888              		.global	HAL_RTC_GetAlarm
 889              		.thumb
ARM GAS  /tmp/ccNpLmFB.s 			page 16


 890              		.thumb_func
 892              	HAL_RTC_GetAlarm:
 893              		@ args = 0, pretend = 0, frame = 0
 894              		@ frame_needed = 0, uses_anonymous_args = 0
 895 0000 F8B5     		push	{r3, r4, r5, r6, r7, lr}
 896 0002 0D46     		mov	r5, r1
 897 0004 1C46     		mov	r4, r3
 898 0006 38B3     		cbz	r0, .L167
 899 0008 31B3     		cbz	r1, .L167
 900 000a FFF7FEFF 		bl	RTC_ReadAlarmCounter
 901 000e 4FF46163 		mov	r3, #3600
 902 0012 B0FBF3F1 		udiv	r1, r0, r3
 903 0016 1826     		movs	r6, #24
 904 0018 B1FBF6F2 		udiv	r2, r1, r6
 905 001c 06FB1212 		mls	r2, r6, r2, r1
 906 0020 03FB1101 		mls	r1, r3, r1, r0
 907 0024 3C26     		movs	r6, #60
 908 0026 B1FBF6F3 		udiv	r3, r1, r6
 909 002a 06FB1316 		mls	r6, r6, r3, r1
 910 002e D2B2     		uxtb	r2, r2
 911 0030 DFB2     		uxtb	r7, r3
 912 0032 F6B2     		uxtb	r6, r6
 913 0034 2A70     		strb	r2, [r5]
 914 0036 6F70     		strb	r7, [r5, #1]
 915 0038 AE70     		strb	r6, [r5, #2]
 916 003a 5CB1     		cbz	r4, .L169
 917 003c 1046     		mov	r0, r2
 918 003e FFF7FEFF 		bl	RTC_ByteToBcd2
 919 0042 2870     		strb	r0, [r5]
 920 0044 3846     		mov	r0, r7
 921 0046 FFF7FEFF 		bl	RTC_ByteToBcd2
 922 004a 6870     		strb	r0, [r5, #1]
 923 004c 3046     		mov	r0, r6
 924 004e FFF7FEFF 		bl	RTC_ByteToBcd2
 925 0052 A870     		strb	r0, [r5, #2]
 926              	.L169:
 927 0054 0020     		movs	r0, #0
 928 0056 F8BD     		pop	{r3, r4, r5, r6, r7, pc}
 929              	.L167:
 930 0058 0120     		movs	r0, #1
 931 005a F8BD     		pop	{r3, r4, r5, r6, r7, pc}
 933              		.section	.text.HAL_RTC_DeactivateAlarm,"ax",%progbits
 934              		.align	1
 935              		.global	HAL_RTC_DeactivateAlarm
 936              		.thumb
 937              		.thumb_func
 939              	HAL_RTC_DeactivateAlarm:
 940              		@ args = 0, pretend = 0, frame = 0
 941              		@ frame_needed = 0, uses_anonymous_args = 0
 942 0000 70B5     		push	{r4, r5, r6, lr}
 943 0002 0446     		mov	r4, r0
 944 0004 88B3     		cbz	r0, .L174
 945 0006 037C     		ldrb	r3, [r0, #16]	@ zero_extendqisi2
 946 0008 012B     		cmp	r3, #1
 947 000a 4FF00203 		mov	r3, #2
 948 000e 2ED0     		beq	.L175
 949 0010 0268     		ldr	r2, [r0]
ARM GAS  /tmp/ccNpLmFB.s 			page 17


 950 0012 4374     		strb	r3, [r0, #17]
 951 0014 1368     		ldr	r3, [r2]
 952 0016 0125     		movs	r5, #1
 953 0018 23F00203 		bic	r3, r3, #2
 954 001c 0574     		strb	r5, [r0, #16]
 955 001e 1360     		str	r3, [r2]
 956 0020 FFF7FEFF 		bl	RTC_EnterInitMode
 957 0024 0646     		mov	r6, r0
 958 0026 20B1     		cbz	r0, .L172
 959 0028 0423     		movs	r3, #4
 960 002a 6374     		strb	r3, [r4, #17]
 961 002c 0023     		movs	r3, #0
 962 002e 2374     		strb	r3, [r4, #16]
 963 0030 16E0     		b	.L176
 964              	.L172:
 965 0032 2368     		ldr	r3, [r4]
 966 0034 6FF00202 		mvn	r2, #2
 967 0038 5A60     		str	r2, [r3, #4]
 968 003a 4FF6FF72 		movw	r2, #65535
 969 003e 1A62     		str	r2, [r3, #32]
 970 0040 5A62     		str	r2, [r3, #36]
 971 0042 02F18042 		add	r2, r2, #1073741824
 972 0046 02F20142 		addw	r2, r2, #1025
 973 004a 1368     		ldr	r3, [r2]
 974 004c 2046     		mov	r0, r4
 975 004e 23F40033 		bic	r3, r3, #131072
 976 0052 1360     		str	r3, [r2]
 977 0054 FFF7FEFF 		bl	RTC_ExitInitMode
 978 0058 20B1     		cbz	r0, .L173
 979 005a 0423     		movs	r3, #4
 980 005c 6374     		strb	r3, [r4, #17]
 981 005e 2674     		strb	r6, [r4, #16]
 982              	.L176:
 983 0060 2846     		mov	r0, r5
 984 0062 70BD     		pop	{r4, r5, r6, pc}
 985              	.L173:
 986 0064 6574     		strb	r5, [r4, #17]
 987 0066 2074     		strb	r0, [r4, #16]
 988 0068 70BD     		pop	{r4, r5, r6, pc}
 989              	.L174:
 990 006a 0120     		movs	r0, #1
 991 006c 70BD     		pop	{r4, r5, r6, pc}
 992              	.L175:
 993 006e 1846     		mov	r0, r3
 994 0070 70BD     		pop	{r4, r5, r6, pc}
 996              		.section	.text.HAL_RTC_AlarmAEventCallback,"ax",%progbits
 997              		.align	1
 998              		.weak	HAL_RTC_AlarmAEventCallback
 999              		.thumb
 1000              		.thumb_func
 1002              	HAL_RTC_AlarmAEventCallback:
 1003              		@ args = 0, pretend = 0, frame = 0
 1004              		@ frame_needed = 0, uses_anonymous_args = 0
 1005              		@ link register save eliminated.
 1006 0000 7047     		bx	lr
 1008              		.section	.text.HAL_RTC_AlarmIRQHandler,"ax",%progbits
 1009              		.align	1
ARM GAS  /tmp/ccNpLmFB.s 			page 18


 1010              		.global	HAL_RTC_AlarmIRQHandler
 1011              		.thumb
 1012              		.thumb_func
 1014              	HAL_RTC_AlarmIRQHandler:
 1015              		@ args = 0, pretend = 0, frame = 0
 1016              		@ frame_needed = 0, uses_anonymous_args = 0
 1017 0000 0368     		ldr	r3, [r0]
 1018 0002 10B5     		push	{r4, lr}
 1019 0004 1A68     		ldr	r2, [r3]
 1020 0006 0446     		mov	r4, r0
 1021 0008 9207     		lsls	r2, r2, #30
 1022 000a 08D5     		bpl	.L179
 1023 000c 5B68     		ldr	r3, [r3, #4]
 1024 000e 9B07     		lsls	r3, r3, #30
 1025 0010 05D5     		bpl	.L179
 1026 0012 FFF7FEFF 		bl	HAL_RTC_AlarmAEventCallback
 1027 0016 2368     		ldr	r3, [r4]
 1028 0018 6FF00202 		mvn	r2, #2
 1029 001c 5A60     		str	r2, [r3, #4]
 1030              	.L179:
 1031 001e 034B     		ldr	r3, .L186
 1032 0020 4FF40032 		mov	r2, #131072
 1033 0024 5A61     		str	r2, [r3, #20]
 1034 0026 0123     		movs	r3, #1
 1035 0028 6374     		strb	r3, [r4, #17]
 1036 002a 10BD     		pop	{r4, pc}
 1037              	.L187:
 1038              		.align	2
 1039              	.L186:
 1040 002c 00040140 		.word	1073808384
 1042              		.section	.text.HAL_RTC_PollForAlarmAEvent,"ax",%progbits
 1043              		.align	1
 1044              		.global	HAL_RTC_PollForAlarmAEvent
 1045              		.thumb
 1046              		.thumb_func
 1048              	HAL_RTC_PollForAlarmAEvent:
 1049              		@ args = 0, pretend = 0, frame = 0
 1050              		@ frame_needed = 0, uses_anonymous_args = 0
 1051 0000 70B5     		push	{r4, r5, r6, lr}
 1052 0002 0446     		mov	r4, r0
 1053 0004 0D46     		mov	r5, r1
 1054 0006 FFF7FEFF 		bl	HAL_GetTick
 1055 000a 0646     		mov	r6, r0
 1056 000c B4B1     		cbz	r4, .L198
 1057              	.L190:
 1058 000e 2368     		ldr	r3, [r4]
 1059              	.L191:
 1060 0010 5A68     		ldr	r2, [r3, #4]
 1061 0012 9207     		lsls	r2, r2, #30
 1062 0014 0BD4     		bmi	.L199
 1063 0016 691C     		adds	r1, r5, #1
 1064 0018 FAD0     		beq	.L191
 1065 001a 15B9     		cbnz	r5, .L192
 1066              	.L193:
 1067 001c 0320     		movs	r0, #3
 1068 001e 6074     		strb	r0, [r4, #17]
 1069 0020 70BD     		pop	{r4, r5, r6, pc}
ARM GAS  /tmp/ccNpLmFB.s 			page 19


 1070              	.L192:
 1071 0022 FFF7FEFF 		bl	HAL_GetTick
 1072 0026 801B     		subs	r0, r0, r6
 1073 0028 A842     		cmp	r0, r5
 1074 002a F0D9     		bls	.L190
 1075 002c F6E7     		b	.L193
 1076              	.L199:
 1077 002e 6FF00202 		mvn	r2, #2
 1078 0032 5A60     		str	r2, [r3, #4]
 1079 0034 0123     		movs	r3, #1
 1080 0036 6374     		strb	r3, [r4, #17]
 1081 0038 0020     		movs	r0, #0
 1082 003a 70BD     		pop	{r4, r5, r6, pc}
 1083              	.L198:
 1084 003c 0120     		movs	r0, #1
 1085 003e 70BD     		pop	{r4, r5, r6, pc}
 1087              		.section	.text.HAL_RTC_GetState,"ax",%progbits
 1088              		.align	1
 1089              		.global	HAL_RTC_GetState
 1090              		.thumb
 1091              		.thumb_func
 1093              	HAL_RTC_GetState:
 1094              		@ args = 0, pretend = 0, frame = 0
 1095              		@ frame_needed = 0, uses_anonymous_args = 0
 1096              		@ link register save eliminated.
 1097 0000 407C     		ldrb	r0, [r0, #17]	@ zero_extendqisi2
 1098 0002 7047     		bx	lr
 1100              		.section	.text.HAL_RTC_WaitForSynchro,"ax",%progbits
 1101              		.align	1
 1102              		.global	HAL_RTC_WaitForSynchro
 1103              		.thumb
 1104              		.thumb_func
 1106              	HAL_RTC_WaitForSynchro:
 1107              		@ args = 0, pretend = 0, frame = 0
 1108              		@ frame_needed = 0, uses_anonymous_args = 0
 1109 0000 38B5     		push	{r3, r4, r5, lr}
 1110 0002 0446     		mov	r4, r0
 1111 0004 A8B1     		cbz	r0, .L205
 1112 0006 0268     		ldr	r2, [r0]
 1113 0008 5368     		ldr	r3, [r2, #4]
 1114 000a 23F00803 		bic	r3, r3, #8
 1115 000e 5360     		str	r3, [r2, #4]
 1116 0010 FFF7FEFF 		bl	HAL_GetTick
 1117 0014 0546     		mov	r5, r0
 1118              	.L203:
 1119 0016 2368     		ldr	r3, [r4]
 1120 0018 5B68     		ldr	r3, [r3, #4]
 1121 001a 1B07     		lsls	r3, r3, #28
 1122 001c 07D4     		bmi	.L207
 1123 001e FFF7FEFF 		bl	HAL_GetTick
 1124 0022 401B     		subs	r0, r0, r5
 1125 0024 B0F57A7F 		cmp	r0, #1000
 1126 0028 F5D9     		bls	.L203
 1127 002a 0320     		movs	r0, #3
 1128 002c 38BD     		pop	{r3, r4, r5, pc}
 1129              	.L207:
 1130 002e 0020     		movs	r0, #0
ARM GAS  /tmp/ccNpLmFB.s 			page 20


 1131 0030 38BD     		pop	{r3, r4, r5, pc}
 1132              	.L205:
 1133 0032 0120     		movs	r0, #1
 1134 0034 38BD     		pop	{r3, r4, r5, pc}
 1136              		.section	.text.HAL_RTC_Init,"ax",%progbits
 1137              		.align	1
 1138              		.global	HAL_RTC_Init
 1139              		.thumb
 1140              		.thumb_func
 1142              	HAL_RTC_Init:
 1143              		@ args = 0, pretend = 0, frame = 0
 1144              		@ frame_needed = 0, uses_anonymous_args = 0
 1145 0000 10B5     		push	{r4, lr}
 1146 0002 0446     		mov	r4, r0
 1147 0004 0028     		cmp	r0, #0
 1148 0006 47D0     		beq	.L217
 1149 0008 437C     		ldrb	r3, [r0, #17]	@ zero_extendqisi2
 1150 000a 03F0FF02 		and	r2, r3, #255
 1151 000e 13B9     		cbnz	r3, .L210
 1152 0010 0274     		strb	r2, [r0, #16]
 1153 0012 FFF7FEFF 		bl	HAL_RTC_MspInit
 1154              	.L210:
 1155 0016 0223     		movs	r3, #2
 1156 0018 6374     		strb	r3, [r4, #17]
 1157 001a 2046     		mov	r0, r4
 1158 001c FFF7FEFF 		bl	HAL_RTC_WaitForSynchro
 1159 0020 D8B9     		cbnz	r0, .L222
 1160 0022 2046     		mov	r0, r4
 1161 0024 FFF7FEFF 		bl	RTC_EnterInitMode
 1162 0028 B8B9     		cbnz	r0, .L222
 1163 002a 2268     		ldr	r2, [r4]
 1164 002c 5368     		ldr	r3, [r2, #4]
 1165 002e 23F00703 		bic	r3, r3, #7
 1166 0032 5360     		str	r3, [r2, #4]
 1167 0034 A268     		ldr	r2, [r4, #8]
 1168 0036 194B     		ldr	r3, .L223
 1169 0038 1AB1     		cbz	r2, .L213
 1170 003a 196B     		ldr	r1, [r3, #48]
 1171 003c 21F00101 		bic	r1, r1, #1
 1172 0040 1963     		str	r1, [r3, #48]
 1173              	.L213:
 1174 0042 D96A     		ldr	r1, [r3, #44]
 1175 0044 21F46071 		bic	r1, r1, #896
 1176 0048 0A43     		orrs	r2, r2, r1
 1177 004a DA62     		str	r2, [r3, #44]
 1178 004c 6068     		ldr	r0, [r4, #4]
 1179 004e 431C     		adds	r3, r0, #1
 1180 0050 07D1     		bne	.L214
 1181 0052 0120     		movs	r0, #1
 1182 0054 FFF7FEFF 		bl	HAL_RCCEx_GetPeriphCLKFreq
 1183 0058 10B9     		cbnz	r0, .L215
 1184              	.L222:
 1185 005a 0423     		movs	r3, #4
 1186 005c 6374     		strb	r3, [r4, #17]
 1187 005e 1BE0     		b	.L217
 1188              	.L215:
 1189 0060 0138     		subs	r0, r0, #1
ARM GAS  /tmp/ccNpLmFB.s 			page 21


 1190              	.L214:
 1191 0062 2268     		ldr	r2, [r4]
 1192 0064 9368     		ldr	r3, [r2, #8]
 1193 0066 23F00F03 		bic	r3, r3, #15
 1194 006a 43EA1043 		orr	r3, r3, r0, lsr #16
 1195 006e 9360     		str	r3, [r2, #8]
 1196 0070 D368     		ldr	r3, [r2, #12]
 1197 0072 80B2     		uxth	r0, r0
 1198 0074 1B0C     		lsrs	r3, r3, #16
 1199 0076 1B04     		lsls	r3, r3, #16
 1200 0078 1843     		orrs	r0, r0, r3
 1201 007a D060     		str	r0, [r2, #12]
 1202 007c 2046     		mov	r0, r4
 1203 007e FFF7FEFF 		bl	RTC_ExitInitMode
 1204 0082 0123     		movs	r3, #1
 1205 0084 18B1     		cbz	r0, .L216
 1206 0086 0422     		movs	r2, #4
 1207 0088 6274     		strb	r2, [r4, #17]
 1208 008a 1846     		mov	r0, r3
 1209 008c 10BD     		pop	{r4, pc}
 1210              	.L216:
 1211 008e E073     		strb	r0, [r4, #15]
 1212 0090 6373     		strb	r3, [r4, #13]
 1213 0092 A373     		strb	r3, [r4, #14]
 1214 0094 6374     		strb	r3, [r4, #17]
 1215 0096 10BD     		pop	{r4, pc}
 1216              	.L217:
 1217 0098 0120     		movs	r0, #1
 1218 009a 10BD     		pop	{r4, pc}
 1219              	.L224:
 1220              		.align	2
 1221              	.L223:
 1222 009c 006C0040 		.word	1073769472
 1224              		.section	.text.HAL_RTC_DeInit,"ax",%progbits
 1225              		.align	1
 1226              		.global	HAL_RTC_DeInit
 1227              		.thumb
 1228              		.thumb_func
 1230              	HAL_RTC_DeInit:
 1231              		@ args = 0, pretend = 0, frame = 0
 1232              		@ frame_needed = 0, uses_anonymous_args = 0
 1233 0000 70B5     		push	{r4, r5, r6, lr}
 1234 0002 0446     		mov	r4, r0
 1235 0004 50B3     		cbz	r0, .L229
 1236 0006 0223     		movs	r3, #2
 1237 0008 4374     		strb	r3, [r0, #17]
 1238 000a FFF7FEFF 		bl	RTC_EnterInitMode
 1239 000e 0646     		mov	r6, r0
 1240 0010 20B1     		cbz	r0, .L227
 1241 0012 0423     		movs	r3, #4
 1242 0014 6374     		strb	r3, [r4, #17]
 1243 0016 0023     		movs	r3, #0
 1244 0018 2374     		strb	r3, [r4, #16]
 1245 001a 1FE0     		b	.L229
 1246              	.L227:
 1247 001c 2368     		ldr	r3, [r4]
 1248 001e 4FF40042 		mov	r2, #32768
ARM GAS  /tmp/ccNpLmFB.s 			page 22


 1249 0022 D861     		str	r0, [r3, #28]
 1250 0024 9861     		str	r0, [r3, #24]
 1251 0026 DA60     		str	r2, [r3, #12]
 1252 0028 9860     		str	r0, [r3, #8]
 1253 002a 1860     		str	r0, [r3]
 1254 002c 5860     		str	r0, [r3, #4]
 1255 002e 2046     		mov	r0, r4
 1256 0030 FFF7FEFF 		bl	RTC_ExitInitMode
 1257 0034 0546     		mov	r5, r0
 1258 0036 18B1     		cbz	r0, .L228
 1259 0038 0423     		movs	r3, #4
 1260 003a 6374     		strb	r3, [r4, #17]
 1261 003c 2674     		strb	r6, [r4, #16]
 1262 003e 0DE0     		b	.L229
 1263              	.L228:
 1264 0040 2046     		mov	r0, r4
 1265 0042 FFF7FEFF 		bl	HAL_RTC_WaitForSynchro
 1266 0046 2268     		ldr	r2, [r4]
 1267 0048 2046     		mov	r0, r4
 1268 004a 5368     		ldr	r3, [r2, #4]
 1269 004c 23F00803 		bic	r3, r3, #8
 1270 0050 5360     		str	r3, [r2, #4]
 1271 0052 FFF7FEFF 		bl	HAL_RTC_MspDeInit
 1272 0056 6574     		strb	r5, [r4, #17]
 1273 0058 2574     		strb	r5, [r4, #16]
 1274 005a 00E0     		b	.L226
 1275              	.L229:
 1276 005c 0125     		movs	r5, #1
 1277              	.L226:
 1278 005e 2846     		mov	r0, r5
 1279 0060 70BD     		pop	{r4, r5, r6, pc}
 1281              		.ident	"GCC: (15:4.9.3+svn231177-1) 4.9.3 20150529 (prerelease)"
ARM GAS  /tmp/ccNpLmFB.s 			page 23

