ARM GAS  /tmp/ccyH0WzS.s 			page 1


   1              		.syntax unified
   2              		.cpu cortex-m3
   3              		.fpu softvfp
   4              		.eabi_attribute 20, 1
   5              		.eabi_attribute 21, 1
   6              		.eabi_attribute 23, 3
   7              		.eabi_attribute 24, 1
   8              		.eabi_attribute 25, 1
   9              		.eabi_attribute 26, 1
  10              		.eabi_attribute 30, 4
  11              		.eabi_attribute 34, 1
  12              		.eabi_attribute 18, 4
  13              		.thumb
  14              		.file	"stm32_adafruit_sd.c"
  15              		.section	.text.SPIx_Error1,"ax",%progbits
  16              		.align	1
  17              		.global	SPIx_Error1
  18              		.thumb
  19              		.thumb_func
  21              	SPIx_Error1:
  22              		@ args = 0, pretend = 0, frame = 0
  23              		@ frame_needed = 0, uses_anonymous_args = 0
  24 0000 08B5     		push	{r3, lr}
  25 0002 0448     		ldr	r0, .L2
  26 0004 FFF7FEFF 		bl	HAL_SPI_DeInit
  27 0008 BDE80840 		pop	{r3, lr}
  28 000c 0020     		movs	r0, #0
  29 000e FFF7FEBF 		b	MX_SPI1_Init
  30              	.L3:
  31 0012 00BF     		.align	2
  32              	.L2:
  33 0014 00000000 		.word	hspi1
  35              		.section	.text.SPIx_WriteReadData1,"ax",%progbits
  36              		.align	1
  37              		.global	SPIx_WriteReadData1
  38              		.thumb
  39              		.thumb_func
  41              	SPIx_WriteReadData1:
  42              		@ args = 0, pretend = 0, frame = 0
  43              		@ frame_needed = 0, uses_anonymous_args = 0
  44 0000 37B5     		push	{r0, r1, r2, r4, r5, lr}
  45 0002 0546     		mov	r5, r0
  46 0004 0C46     		mov	r4, r1
  47 0006 1346     		mov	r3, r2
  48 0008 4FF47A72 		mov	r2, #1000
  49 000c 0092     		str	r2, [sp]
  50 000e 0648     		ldr	r0, .L7
  51 0010 2946     		mov	r1, r5
  52 0012 2246     		mov	r2, r4
  53 0014 FFF7FEFF 		bl	HAL_SPI_TransmitReceive
  54 0018 20B1     		cbz	r0, .L4
  55 001a 03B0     		add	sp, sp, #12
  56              		@ sp needed
  57 001c BDE83040 		pop	{r4, r5, lr}
  58 0020 FFF7FEBF 		b	SPIx_Error1
  59              	.L4:
  60 0024 03B0     		add	sp, sp, #12
ARM GAS  /tmp/ccyH0WzS.s 			page 2


  61              		@ sp needed
  62 0026 30BD     		pop	{r4, r5, pc}
  63              	.L8:
  64              		.align	2
  65              	.L7:
  66 0028 00000000 		.word	hspi1
  68              		.section	.text.SD_IO_WriteReadData,"ax",%progbits
  69              		.align	1
  70              		.global	SD_IO_WriteReadData
  71              		.thumb
  72              		.thumb_func
  74              	SD_IO_WriteReadData:
  75              		@ args = 0, pretend = 0, frame = 0
  76              		@ frame_needed = 0, uses_anonymous_args = 0
  77              		@ link register save eliminated.
  78 0000 FFF7FEBF 		b	SPIx_WriteReadData1
  80              		.section	.text.SD_IO_WriteByte,"ax",%progbits
  81              		.align	1
  82              		.global	SD_IO_WriteByte
  83              		.thumb
  84              		.thumb_func
  86              	SD_IO_WriteByte:
  87              		@ args = 0, pretend = 0, frame = 16
  88              		@ frame_needed = 0, uses_anonymous_args = 0
  89 0000 1FB5     		push	{r0, r1, r2, r3, r4, lr}
  90 0002 04AB     		add	r3, sp, #16
  91 0004 03F8090D 		strb	r0, [r3, #-9]!
  92 0008 1846     		mov	r0, r3
  93 000a 0DF10F01 		add	r1, sp, #15
  94 000e 0122     		movs	r2, #1
  95 0010 FFF7FEFF 		bl	SPIx_WriteReadData1
  96 0014 9DF80F00 		ldrb	r0, [sp, #15]	@ zero_extendqisi2
  97 0018 05B0     		add	sp, sp, #20
  98              		@ sp needed
  99 001a 5DF804FB 		ldr	pc, [sp], #4
 101              		.section	.text.SD_ReadData,"ax",%progbits
 102              		.align	1
 103              		.thumb
 104              		.thumb_func
 106              	SD_ReadData:
 107              		@ args = 0, pretend = 0, frame = 0
 108              		@ frame_needed = 0, uses_anonymous_args = 0
 109 0000 10B5     		push	{r4, lr}
 110 0002 0824     		movs	r4, #8
 111              	.L13:
 112 0004 FF20     		movs	r0, #255
 113 0006 FFF7FEFF 		bl	SD_IO_WriteByte
 114 000a FF28     		cmp	r0, #255
 115 000c 03D1     		bne	.L12
 116 000e 013C     		subs	r4, r4, #1
 117 0010 14F0FF04 		ands	r4, r4, #255
 118 0014 F6D1     		bne	.L13
 119              	.L12:
 120 0016 10BD     		pop	{r4, pc}
 122              		.section	.text.SD_SendCmd,"ax",%progbits
 123              		.align	1
 124              		.thumb
ARM GAS  /tmp/ccyH0WzS.s 			page 3


 125              		.thumb_func
 127              	SD_SendCmd:
 128              		@ args = 4, pretend = 0, frame = 16
 129              		@ frame_needed = 0, uses_anonymous_args = 0
 130 0000 2DE9FF41 		push	{r0, r1, r2, r3, r4, r5, r6, r7, r8, lr}
 131 0004 41F04001 		orr	r1, r1, #64
 132 0008 8DF80010 		strb	r1, [sp]
 133 000c 110E     		lsrs	r1, r2, #24
 134 000e 8DF80110 		strb	r1, [sp, #1]
 135 0012 110C     		lsrs	r1, r2, #16
 136 0014 8DF80210 		strb	r1, [sp, #2]
 137 0018 110A     		lsrs	r1, r2, #8
 138 001a 43F00103 		orr	r3, r3, #1
 139 001e 9DF82850 		ldrb	r5, [sp, #40]	@ zero_extendqisi2
 140 0022 8DF80310 		strb	r1, [sp, #3]
 141 0026 8DF80420 		strb	r2, [sp, #4]
 142 002a 4FF40061 		mov	r1, #2048
 143 002e 0022     		movs	r2, #0
 144 0030 0446     		mov	r4, r0
 145 0032 3148     		ldr	r0, .L26
 146 0034 8DF80530 		strb	r3, [sp, #5]
 147 0038 FFF7FEFF 		bl	HAL_GPIO_WritePin
 148 003c 6846     		mov	r0, sp
 149 003e 02A9     		add	r1, sp, #8
 150 0040 0622     		movs	r2, #6
 151 0042 FFF7FEFF 		bl	SPIx_WriteReadData1
 152 0046 052D     		cmp	r5, #5
 153 0048 46D8     		bhi	.L23
 154 004a DFE805F0 		tbb	[pc, r5]
 155              	.L18:
 156 004e 03       		.byte	(.L17-.L18)/2
 157 004f 0B       		.byte	(.L19-.L18)/2
 158 0050 27       		.byte	(.L20-.L18)/2
 159 0051 32       		.byte	(.L21-.L18)/2
 160 0052 45       		.byte	(.L23-.L18)/2
 161 0053 32       		.byte	(.L21-.L18)/2
 162              		.p2align 1
 163              	.L17:
 164 0054 FFF7FEFF 		bl	SD_ReadData
 165 0058 8046     		mov	r8, r0
 166 005a FF20     		movs	r0, #255
 167 005c 0546     		mov	r5, r0
 168 005e 0646     		mov	r6, r0
 169 0060 0746     		mov	r7, r0
 170 0062 3EE0     		b	.L16
 171              	.L19:
 172 0064 FFF7FEFF 		bl	SD_ReadData
 173 0068 8046     		mov	r8, r0
 174 006a FF20     		movs	r0, #255
 175 006c FFF7FEFF 		bl	SD_IO_WriteByte
 176 0070 4FF40061 		mov	r1, #2048
 177 0074 0122     		movs	r2, #1
 178 0076 0746     		mov	r7, r0
 179 0078 1F48     		ldr	r0, .L26
 180 007a FFF7FEFF 		bl	HAL_GPIO_WritePin
 181 007e 0120     		movs	r0, #1
 182 0080 FFF7FEFF 		bl	HAL_Delay
ARM GAS  /tmp/ccyH0WzS.s 			page 4


 183 0084 1C48     		ldr	r0, .L26
 184 0086 4FF40061 		mov	r1, #2048
 185 008a 0022     		movs	r2, #0
 186 008c FFF7FEFF 		bl	HAL_GPIO_WritePin
 187              	.L22:
 188 0090 FF20     		movs	r0, #255
 189 0092 FFF7FEFF 		bl	SD_IO_WriteByte
 190 0096 FF28     		cmp	r0, #255
 191 0098 FAD1     		bne	.L22
 192 009a 07E0     		b	.L25
 193              	.L20:
 194 009c FFF7FEFF 		bl	SD_ReadData
 195 00a0 8046     		mov	r8, r0
 196 00a2 FF20     		movs	r0, #255
 197 00a4 FFF7FEFF 		bl	SD_IO_WriteByte
 198 00a8 0746     		mov	r7, r0
 199 00aa FF20     		movs	r0, #255
 200              	.L25:
 201 00ac 0546     		mov	r5, r0
 202 00ae 0646     		mov	r6, r0
 203 00b0 17E0     		b	.L16
 204              	.L21:
 205 00b2 FFF7FEFF 		bl	SD_ReadData
 206 00b6 8046     		mov	r8, r0
 207 00b8 FF20     		movs	r0, #255
 208 00ba FFF7FEFF 		bl	SD_IO_WriteByte
 209 00be 0746     		mov	r7, r0
 210 00c0 FF20     		movs	r0, #255
 211 00c2 FFF7FEFF 		bl	SD_IO_WriteByte
 212 00c6 0646     		mov	r6, r0
 213 00c8 FF20     		movs	r0, #255
 214 00ca FFF7FEFF 		bl	SD_IO_WriteByte
 215 00ce 0546     		mov	r5, r0
 216 00d0 FF20     		movs	r0, #255
 217 00d2 FFF7FEFF 		bl	SD_IO_WriteByte
 218 00d6 04E0     		b	.L16
 219              	.L23:
 220 00d8 FF20     		movs	r0, #255
 221 00da 0546     		mov	r5, r0
 222 00dc 0646     		mov	r6, r0
 223 00de 0746     		mov	r7, r0
 224 00e0 8046     		mov	r8, r0
 225              	.L16:
 226 00e2 2071     		strb	r0, [r4, #4]
 227 00e4 2046     		mov	r0, r4
 228 00e6 84F80080 		strb	r8, [r4]
 229 00ea 6770     		strb	r7, [r4, #1]
 230 00ec A670     		strb	r6, [r4, #2]
 231 00ee E570     		strb	r5, [r4, #3]
 232 00f0 04B0     		add	sp, sp, #16
 233              		@ sp needed
 234 00f2 BDE8F081 		pop	{r4, r5, r6, r7, r8, pc}
 235              	.L27:
 236 00f6 00BF     		.align	2
 237              	.L26:
 238 00f8 000C0140 		.word	1073810432
 240              		.section	.text.SD_WaitData.constprop.0,"ax",%progbits
ARM GAS  /tmp/ccyH0WzS.s 			page 5


 241              		.align	1
 242              		.thumb
 243              		.thumb_func
 245              	SD_WaitData.constprop.0:
 246              		@ args = 0, pretend = 0, frame = 0
 247              		@ frame_needed = 0, uses_anonymous_args = 0
 248 0000 10B5     		push	{r4, lr}
 249 0002 4FF6FF74 		movw	r4, #65535
 250              	.L30:
 251 0006 FF20     		movs	r0, #255
 252 0008 FFF7FEFF 		bl	SD_IO_WriteByte
 253 000c 013C     		subs	r4, r4, #1
 254 000e FE28     		cmp	r0, #254
 255 0010 A4B2     		uxth	r4, r4
 256 0012 03D0     		beq	.L29
 257 0014 002C     		cmp	r4, #0
 258 0016 F6D1     		bne	.L30
 259 0018 0220     		movs	r0, #2
 260 001a 10BD     		pop	{r4, pc}
 261              	.L29:
 262 001c 002C     		cmp	r4, #0
 263 001e 0CBF     		ite	eq
 264 0020 0220     		moveq	r0, #2
 265 0022 0020     		movne	r0, #0
 266 0024 10BD     		pop	{r4, pc}
 268              		.section	.text.SD_IO_ReadData,"ax",%progbits
 269              		.align	1
 270              		.global	SD_IO_ReadData
 271              		.thumb
 272              		.thumb_func
 274              	SD_IO_ReadData:
 275              		@ args = 0, pretend = 0, frame = 0
 276              		@ frame_needed = 0, uses_anonymous_args = 0
 277              		@ link register save eliminated.
 278 0000 0A46     		mov	r2, r1
 279 0002 0146     		mov	r1, r0
 280 0004 FFF7FEBF 		b	SPIx_WriteReadData1
 282              		.section	.text.SD_IO_WriteData,"ax",%progbits
 283              		.align	1
 284              		.global	SD_IO_WriteData
 285              		.thumb
 286              		.thumb_func
 288              	SD_IO_WriteData:
 289              		@ args = 0, pretend = 0, frame = 0
 290              		@ frame_needed = 0, uses_anonymous_args = 0
 291 0000 08B5     		push	{r3, lr}
 292 0002 0346     		mov	r3, r0
 293 0004 0A46     		mov	r2, r1
 294 0006 0648     		ldr	r0, .L37
 295 0008 1946     		mov	r1, r3
 296 000a 4FF47A73 		mov	r3, #1000
 297 000e FFF7FEFF 		bl	HAL_SPI_Transmit
 298 0012 18B1     		cbz	r0, .L35
 299 0014 BDE80840 		pop	{r3, lr}
 300 0018 FFF7FEBF 		b	SPIx_Error1
 301              	.L35:
 302 001c 08BD     		pop	{r3, pc}
ARM GAS  /tmp/ccyH0WzS.s 			page 6


 303              	.L38:
 304 001e 00BF     		.align	2
 305              	.L37:
 306 0020 00000000 		.word	hspi1
 308              		.section	.text.SD_IO_Init,"ax",%progbits
 309              		.align	1
 310              		.global	SD_IO_Init
 311              		.thumb
 312              		.thumb_func
 314              	SD_IO_Init:
 315              		@ args = 0, pretend = 0, frame = 0
 316              		@ frame_needed = 0, uses_anonymous_args = 0
 317 0000 10B5     		push	{r4, lr}
 318 0002 0A48     		ldr	r0, .L42
 319 0004 4FF40061 		mov	r1, #2048
 320 0008 0122     		movs	r2, #1
 321 000a FFF7FEFF 		bl	HAL_GPIO_WritePin
 322 000e 0748     		ldr	r0, .L42
 323 0010 4FF40061 		mov	r1, #2048
 324 0014 0122     		movs	r2, #1
 325 0016 FFF7FEFF 		bl	HAL_GPIO_WritePin
 326 001a 0A24     		movs	r4, #10
 327              	.L40:
 328 001c FF20     		movs	r0, #255
 329 001e 013C     		subs	r4, r4, #1
 330 0020 FFF7FEFF 		bl	SD_IO_WriteByte
 331 0024 14F0FF04 		ands	r4, r4, #255
 332 0028 F8D1     		bne	.L40
 333 002a 10BD     		pop	{r4, pc}
 334              	.L43:
 335              		.align	2
 336              	.L42:
 337 002c 000C0140 		.word	1073810432
 339              		.section	.text.BSP_SD_Init,"ax",%progbits
 340              		.align	1
 341              		.global	BSP_SD_Init
 342              		.thumb
 343              		.thumb_func
 345              	BSP_SD_Init:
 346              		@ args = 0, pretend = 0, frame = 16
 347              		@ frame_needed = 0, uses_anonymous_args = 0
 348 0000 70B5     		push	{r4, r5, r6, lr}
 349 0002 86B0     		sub	sp, sp, #24
 350 0004 FFF7FEFF 		bl	SD_IO_Init
 351 0008 6D4B     		ldr	r3, .L66
 352 000a 0122     		movs	r2, #1
 353 000c 1A70     		strb	r2, [r3]
 354 000e 0023     		movs	r3, #0
 355 0010 8DF80F30 		strb	r3, [sp, #15]
 356              	.L47:
 357 0014 9DF80F30 		ldrb	r3, [sp, #15]	@ zero_extendqisi2
 358 0018 0021     		movs	r1, #0
 359 001a 0133     		adds	r3, r3, #1
 360 001c DBB2     		uxtb	r3, r3
 361 001e 0A46     		mov	r2, r1
 362 0020 8DF80F30 		strb	r3, [sp, #15]
 363 0024 0091     		str	r1, [sp]
ARM GAS  /tmp/ccyH0WzS.s 			page 7


 364 0026 9523     		movs	r3, #149
 365 0028 04A8     		add	r0, sp, #16
 366 002a FFF7FEFF 		bl	SD_SendCmd
 367 002e 6548     		ldr	r0, .L66+4
 368 0030 4FF40061 		mov	r1, #2048
 369 0034 0122     		movs	r2, #1
 370 0036 9DF81040 		ldrb	r4, [sp, #16]	@ zero_extendqisi2
 371 003a FFF7FEFF 		bl	HAL_GPIO_WritePin
 372 003e FF20     		movs	r0, #255
 373 0040 FFF7FEFF 		bl	SD_IO_WriteByte
 374 0044 9DF80F30 		ldrb	r3, [sp, #15]	@ zero_extendqisi2
 375 0048 632B     		cmp	r3, #99
 376 004a 01D9     		bls	.L45
 377              	.L50:
 378 004c 0124     		movs	r4, #1
 379 004e B3E0     		b	.L46
 380              	.L45:
 381 0050 012C     		cmp	r4, #1
 382 0052 DFD1     		bne	.L47
 383 0054 0523     		movs	r3, #5
 384 0056 0093     		str	r3, [sp]
 385 0058 04A8     		add	r0, sp, #16
 386 005a 8723     		movs	r3, #135
 387 005c 0821     		movs	r1, #8
 388 005e 4FF4D572 		mov	r2, #426
 389 0062 FFF7FEFF 		bl	SD_SendCmd
 390 0066 2246     		mov	r2, r4
 391 0068 9DF81050 		ldrb	r5, [sp, #16]	@ zero_extendqisi2
 392 006c 5548     		ldr	r0, .L66+4
 393 006e 4FF40061 		mov	r1, #2048
 394 0072 FFF7FEFF 		bl	HAL_GPIO_WritePin
 395 0076 FF20     		movs	r0, #255
 396 0078 FFF7FEFF 		bl	SD_IO_WriteByte
 397 007c 05F00403 		and	r3, r5, #4
 398 0080 03F0FF04 		and	r4, r3, #255
 399 0084 3BB3     		cbz	r3, .L48
 400              	.L59:
 401 0086 0024     		movs	r4, #0
 402 0088 FF23     		movs	r3, #255
 403 008a 04A8     		add	r0, sp, #16
 404 008c 3721     		movs	r1, #55
 405 008e 2246     		mov	r2, r4
 406 0090 0094     		str	r4, [sp]
 407 0092 FFF7FEFF 		bl	SD_SendCmd
 408 0096 4FF40061 		mov	r1, #2048
 409 009a 0122     		movs	r2, #1
 410 009c 4948     		ldr	r0, .L66+4
 411 009e FFF7FEFF 		bl	HAL_GPIO_WritePin
 412 00a2 FF20     		movs	r0, #255
 413 00a4 FFF7FEFF 		bl	SD_IO_WriteByte
 414 00a8 FF23     		movs	r3, #255
 415 00aa 04A8     		add	r0, sp, #16
 416 00ac 2921     		movs	r1, #41
 417 00ae 2246     		mov	r2, r4
 418 00b0 0094     		str	r4, [sp]
 419 00b2 FFF7FEFF 		bl	SD_SendCmd
 420 00b6 9DF81050 		ldrb	r5, [sp, #16]	@ zero_extendqisi2
ARM GAS  /tmp/ccyH0WzS.s 			page 8


 421 00ba 4248     		ldr	r0, .L66+4
 422 00bc 4FF40061 		mov	r1, #2048
 423 00c0 0122     		movs	r2, #1
 424 00c2 FFF7FEFF 		bl	HAL_GPIO_WritePin
 425 00c6 FF20     		movs	r0, #255
 426 00c8 FFF7FEFF 		bl	SD_IO_WriteByte
 427 00cc 012D     		cmp	r5, #1
 428 00ce DAD0     		beq	.L59
 429 00d0 3D4B     		ldr	r3, .L66+8
 430 00d2 1C80     		strh	r4, [r3]	@ movhi
 431 00d4 70E0     		b	.L46
 432              	.L48:
 433 00d6 012D     		cmp	r5, #1
 434 00d8 B8D1     		bne	.L50
 435              	.L51:
 436 00da 0025     		movs	r5, #0
 437 00dc FF23     		movs	r3, #255
 438 00de 2A46     		mov	r2, r5
 439 00e0 0095     		str	r5, [sp]
 440 00e2 04A8     		add	r0, sp, #16
 441 00e4 3721     		movs	r1, #55
 442 00e6 FFF7FEFF 		bl	SD_SendCmd
 443 00ea 4FF40061 		mov	r1, #2048
 444 00ee 0122     		movs	r2, #1
 445 00f0 3448     		ldr	r0, .L66+4
 446 00f2 FFF7FEFF 		bl	HAL_GPIO_WritePin
 447 00f6 FF20     		movs	r0, #255
 448 00f8 FFF7FEFF 		bl	SD_IO_WriteByte
 449 00fc FF23     		movs	r3, #255
 450 00fe 0095     		str	r5, [sp]
 451 0100 04A8     		add	r0, sp, #16
 452 0102 2921     		movs	r1, #41
 453 0104 4FF08042 		mov	r2, #1073741824
 454 0108 FFF7FEFF 		bl	SD_SendCmd
 455 010c 9DF81050 		ldrb	r5, [sp, #16]	@ zero_extendqisi2
 456 0110 2C48     		ldr	r0, .L66+4
 457 0112 4FF40061 		mov	r1, #2048
 458 0116 0122     		movs	r2, #1
 459 0118 FFF7FEFF 		bl	HAL_GPIO_WritePin
 460 011c FF20     		movs	r0, #255
 461 011e FFF7FEFF 		bl	SD_IO_WriteByte
 462 0122 012D     		cmp	r5, #1
 463 0124 D9D0     		beq	.L51
 464 0126 6B07     		lsls	r3, r5, #29
 465 0128 30D4     		bmi	.L60
 466              	.L54:
 467 012a 0323     		movs	r3, #3
 468 012c 0093     		str	r3, [sp]
 469 012e 04A8     		add	r0, sp, #16
 470 0130 3A21     		movs	r1, #58
 471 0132 0022     		movs	r2, #0
 472 0134 FF23     		movs	r3, #255
 473 0136 FFF7FEFF 		bl	SD_SendCmd
 474 013a 9DF81050 		ldrb	r5, [sp, #16]	@ zero_extendqisi2
 475 013e 2148     		ldr	r0, .L66+4
 476 0140 4FF40061 		mov	r1, #2048
 477 0144 0122     		movs	r2, #1
ARM GAS  /tmp/ccyH0WzS.s 			page 9


 478 0146 FFF7FEFF 		bl	HAL_GPIO_WritePin
 479 014a FF20     		movs	r0, #255
 480 014c FFF7FEFF 		bl	SD_IO_WriteByte
 481 0150 002D     		cmp	r5, #0
 482 0152 7FF47BAF 		bne	.L50
 483 0156 9DF81130 		ldrb	r3, [sp, #17]	@ zero_extendqisi2
 484 015a 1B4A     		ldr	r2, .L66+8
 485 015c C3F38013 		ubfx	r3, r3, #6, #1
 486 0160 1380     		strh	r3, [r2]	@ movhi
 487 0162 29E0     		b	.L46
 488              	.L65:
 489 0164 2A46     		mov	r2, r5
 490 0166 FF23     		movs	r3, #255
 491 0168 0095     		str	r5, [sp]
 492 016a 04A8     		add	r0, sp, #16
 493 016c 2921     		movs	r1, #41
 494 016e FFF7FEFF 		bl	SD_SendCmd
 495 0172 9DF81050 		ldrb	r5, [sp, #16]	@ zero_extendqisi2
 496 0176 1348     		ldr	r0, .L66+4
 497 0178 4FF40061 		mov	r1, #2048
 498 017c 3246     		mov	r2, r6
 499 017e FFF7FEFF 		bl	HAL_GPIO_WritePin
 500 0182 FF20     		movs	r0, #255
 501 0184 FFF7FEFF 		bl	SD_IO_WriteByte
 502 0188 012D     		cmp	r5, #1
 503 018a CED1     		bne	.L54
 504              	.L60:
 505 018c 0025     		movs	r5, #0
 506 018e FF23     		movs	r3, #255
 507 0190 04A8     		add	r0, sp, #16
 508 0192 3721     		movs	r1, #55
 509 0194 2A46     		mov	r2, r5
 510 0196 0095     		str	r5, [sp]
 511 0198 FFF7FEFF 		bl	SD_SendCmd
 512 019c 9DF81060 		ldrb	r6, [sp, #16]	@ zero_extendqisi2
 513 01a0 0848     		ldr	r0, .L66+4
 514 01a2 4FF40061 		mov	r1, #2048
 515 01a6 0122     		movs	r2, #1
 516 01a8 FFF7FEFF 		bl	HAL_GPIO_WritePin
 517 01ac FF20     		movs	r0, #255
 518 01ae FFF7FEFF 		bl	SD_IO_WriteByte
 519 01b2 012E     		cmp	r6, #1
 520 01b4 D6D0     		beq	.L65
 521 01b6 49E7     		b	.L50
 522              	.L46:
 523 01b8 2046     		mov	r0, r4
 524 01ba 06B0     		add	sp, sp, #24
 525              		@ sp needed
 526 01bc 70BD     		pop	{r4, r5, r6, pc}
 527              	.L67:
 528 01be 00BF     		.align	2
 529              	.L66:
 530 01c0 00000000 		.word	.LANCHOR0
 531 01c4 000C0140 		.word	1073810432
 532 01c8 00000000 		.word	.LANCHOR1
 534              		.global	__aeabi_llsl
 535              		.section	.text.BSP_SD_GetCardInfo,"ax",%progbits
ARM GAS  /tmp/ccyH0WzS.s 			page 10


 536              		.align	1
 537              		.global	BSP_SD_GetCardInfo
 538              		.thumb
 539              		.thumb_func
 541              	BSP_SD_GetCardInfo:
 542              		@ args = 0, pretend = 0, frame = 24
 543              		@ frame_needed = 0, uses_anonymous_args = 0
 544 0000 F0B5     		push	{r4, r5, r6, r7, lr}
 545 0002 0022     		movs	r2, #0
 546 0004 89B0     		sub	sp, sp, #36
 547 0006 FF23     		movs	r3, #255
 548 0008 0446     		mov	r4, r0
 549 000a 0092     		str	r2, [sp]
 550 000c 02A8     		add	r0, sp, #8
 551 000e 0921     		movs	r1, #9
 552 0010 FFF7FEFF 		bl	SD_SendCmd
 553 0014 9DF80830 		ldrb	r3, [sp, #8]	@ zero_extendqisi2
 554 0018 0BB1     		cbz	r3, .L69
 555              	.L71:
 556 001a 0126     		movs	r6, #1
 557 001c ECE0     		b	.L70
 558              	.L69:
 559 001e FFF7FEFF 		bl	SD_WaitData.constprop.0
 560 0022 0028     		cmp	r0, #0
 561 0024 F9D1     		bne	.L71
 562 0026 0546     		mov	r5, r0
 563              	.L72:
 564 0028 FF20     		movs	r0, #255
 565 002a FFF7FEFF 		bl	SD_IO_WriteByte
 566 002e 04AB     		add	r3, sp, #16
 567 0030 5855     		strb	r0, [r3, r5]
 568 0032 0135     		adds	r5, r5, #1
 569 0034 102D     		cmp	r5, #16
 570 0036 F7D1     		bne	.L72
 571 0038 FF20     		movs	r0, #255
 572 003a FFF7FEFF 		bl	SD_IO_WriteByte
 573 003e FF20     		movs	r0, #255
 574 0040 FFF7FEFF 		bl	SD_IO_WriteByte
 575 0044 9DF81020 		ldrb	r2, [sp, #16]	@ zero_extendqisi2
 576 0048 2378     		ldrb	r3, [r4]	@ zero_extendqisi2
 577 004a 9109     		lsrs	r1, r2, #6
 578 004c 61F30103 		bfi	r3, r1, #0, #2
 579 0050 62F38703 		bfi	r3, r2, #2, #6
 580 0054 2370     		strb	r3, [r4]
 581 0056 9DF81130 		ldrb	r3, [sp, #17]	@ zero_extendqisi2
 582 005a 9DF81510 		ldrb	r1, [sp, #21]	@ zero_extendqisi2
 583 005e 6370     		strb	r3, [r4, #1]
 584 0060 9DF81230 		ldrb	r3, [sp, #18]	@ zero_extendqisi2
 585 0064 9DF81420 		ldrb	r2, [sp, #20]	@ zero_extendqisi2
 586 0068 A370     		strb	r3, [r4, #2]
 587 006a 9DF81330 		ldrb	r3, [sp, #19]	@ zero_extendqisi2
 588 006e 9DF81860 		ldrb	r6, [sp, #24]	@ zero_extendqisi2
 589 0072 E370     		strb	r3, [r4, #3]
 590 0074 0B09     		lsrs	r3, r1, #4
 591 0076 43EA0212 		orr	r2, r3, r2, lsl #4
 592 007a A388     		ldrh	r3, [r4, #4]
 593 007c 9DF81700 		ldrb	r0, [sp, #23]	@ zero_extendqisi2
ARM GAS  /tmp/ccyH0WzS.s 			page 11


 594 0080 62F30B03 		bfi	r3, r2, #0, #12
 595 0084 A380     		strh	r3, [r4, #4]	@ movhi
 596 0086 1B0A     		lsrs	r3, r3, #8
 597 0088 61F30713 		bfi	r3, r1, #4, #4
 598 008c 6371     		strb	r3, [r4, #5]
 599 008e 9DF81630 		ldrb	r3, [sp, #22]	@ zero_extendqisi2
 600 0092 A279     		ldrb	r2, [r4, #6]	@ zero_extendqisi2
 601 0094 D909     		lsrs	r1, r3, #7
 602 0096 61F30002 		bfi	r2, r1, #0, #1
 603 009a C3F38011 		ubfx	r1, r3, #6, #1
 604 009e 61F34102 		bfi	r2, r1, #1, #1
 605 00a2 C3F34011 		ubfx	r1, r3, #5, #1
 606 00a6 61F38202 		bfi	r2, r1, #2, #1
 607 00aa C3F30011 		ubfx	r1, r3, #4, #1
 608 00ae 61F3C302 		bfi	r2, r1, #3, #1
 609 00b2 A271     		strb	r2, [r4, #6]
 610 00b4 B44A     		ldr	r2, .L84
 611 00b6 9DF81A10 		ldrb	r1, [sp, #26]	@ zero_extendqisi2
 612 00ba 1588     		ldrh	r5, [r2]
 613 00bc 9DF81920 		ldrb	r2, [sp, #25]	@ zero_extendqisi2
 614 00c0 5DBB     		cbnz	r5, .L73
 615 00c2 257A     		ldrb	r5, [r4, #8]	@ zero_extendqisi2
 616 00c4 C3F38107 		ubfx	r7, r3, #2, #2
 617 00c8 67F30105 		bfi	r5, r7, #0, #2
 618 00cc 2572     		strb	r5, [r4, #8]
 619 00ce B509     		lsrs	r5, r6, #6
 620 00d0 45EA8000 		orr	r0, r5, r0, lsl #2
 621 00d4 03F00303 		and	r3, r3, #3
 622 00d8 40EA8323 		orr	r3, r0, r3, lsl #10
 623 00dc 2089     		ldrh	r0, [r4, #8]
 624 00de 63F38D00 		bfi	r0, r3, #2, #12
 625 00e2 A37A     		ldrb	r3, [r4, #10]	@ zero_extendqisi2
 626 00e4 2081     		strh	r0, [r4, #8]	@ movhi
 627 00e6 C6F3C200 		ubfx	r0, r6, #3, #3
 628 00ea 60F30203 		bfi	r3, r0, #0, #3
 629 00ee 66F3C503 		bfi	r3, r6, #3, #3
 630 00f2 A372     		strb	r3, [r4, #10]
 631 00f4 E37A     		ldrb	r3, [r4, #11]	@ zero_extendqisi2
 632 00f6 5009     		lsrs	r0, r2, #5
 633 00f8 60F30203 		bfi	r3, r0, #0, #3
 634 00fc C2F38200 		ubfx	r0, r2, #2, #3
 635 0100 60F3C503 		bfi	r3, r0, #3, #3
 636 0104 E372     		strb	r3, [r4, #11]
 637 0106 02F00302 		and	r2, r2, #3
 638 010a CB09     		lsrs	r3, r1, #7
 639 010c 43EA4202 		orr	r2, r3, r2, lsl #1
 640 0110 237B     		ldrb	r3, [r4, #12]	@ zero_extendqisi2
 641 0112 62F30203 		bfi	r3, r2, #0, #3
 642 0116 2373     		strb	r3, [r4, #12]
 643 0118 16E0     		b	.L74
 644              	.L73:
 645 011a 8509     		lsrs	r5, r0, #6
 646 011c 03F00F03 		and	r3, r3, #15
 647 0120 45EA8303 		orr	r3, r5, r3, lsl #2
 648 0124 257A     		ldrb	r5, [r4, #8]	@ zero_extendqisi2
 649 0126 42EA0622 		orr	r2, r2, r6, lsl #8
 650 012a 63F30505 		bfi	r5, r3, #0, #6
ARM GAS  /tmp/ccyH0WzS.s 			page 12


 651 012e 2572     		strb	r5, [r4, #8]
 652 0130 A368     		ldr	r3, [r4, #8]
 653 0132 00F03F00 		and	r0, r0, #63
 654 0136 42EA0042 		orr	r2, r2, r0, lsl #16
 655 013a 62F39B13 		bfi	r3, r2, #6, #22
 656 013e A360     		str	r3, [r4, #8]
 657 0140 1B0E     		lsrs	r3, r3, #24
 658 0142 6FF30413 		bfc	r3, #4, #1
 659 0146 E372     		strb	r3, [r4, #11]
 660              	.L74:
 661 0148 237C     		ldrb	r3, [r4, #16]	@ zero_extendqisi2
 662 014a 9DF81B00 		ldrb	r0, [sp, #27]	@ zero_extendqisi2
 663 014e C1F38012 		ubfx	r2, r1, #6, #1
 664 0152 62F30003 		bfi	r3, r2, #0, #1
 665 0156 01F03F01 		and	r1, r1, #63
 666 015a C209     		lsrs	r2, r0, #7
 667 015c 42EA4101 		orr	r1, r2, r1, lsl #1
 668 0160 61F34703 		bfi	r3, r1, #1, #7
 669 0164 627C     		ldrb	r2, [r4, #17]	@ zero_extendqisi2
 670 0166 2374     		strb	r3, [r4, #16]
 671 0168 9DF81C30 		ldrb	r3, [sp, #28]	@ zero_extendqisi2
 672 016c 60F30602 		bfi	r2, r0, #0, #7
 673 0170 D909     		lsrs	r1, r3, #7
 674 0172 61F3C712 		bfi	r2, r1, #7, #1
 675 0176 6274     		strb	r2, [r4, #17]
 676 0178 A27C     		ldrb	r2, [r4, #18]	@ zero_extendqisi2
 677 017a C3F34111 		ubfx	r1, r3, #5, #2
 678 017e 61F30102 		bfi	r2, r1, #0, #2
 679 0182 C3F38201 		ubfx	r1, r3, #2, #3
 680 0186 61F38402 		bfi	r2, r1, #2, #3
 681 018a A274     		strb	r2, [r4, #18]
 682 018c 9DF81D20 		ldrb	r2, [sp, #29]	@ zero_extendqisi2
 683 0190 03F00303 		and	r3, r3, #3
 684 0194 9109     		lsrs	r1, r2, #6
 685 0196 41EA8301 		orr	r1, r1, r3, lsl #2
 686 019a E37C     		ldrb	r3, [r4, #19]	@ zero_extendqisi2
 687 019c 0026     		movs	r6, #0
 688 019e 61F30303 		bfi	r3, r1, #0, #4
 689 01a2 C2F34011 		ubfx	r1, r2, #5, #1
 690 01a6 61F30413 		bfi	r3, r1, #4, #1
 691 01aa E374     		strb	r3, [r4, #19]
 692 01ac 237D     		ldrb	r3, [r4, #20]	@ zero_extendqisi2
 693 01ae 62F30403 		bfi	r3, r2, #0, #5
 694 01b2 9DF81E20 		ldrb	r2, [sp, #30]	@ zero_extendqisi2
 695 01b6 D109     		lsrs	r1, r2, #7
 696 01b8 61F34513 		bfi	r3, r1, #5, #1
 697 01bc C2F38011 		ubfx	r1, r2, #6, #1
 698 01c0 61F38613 		bfi	r3, r1, #6, #1
 699 01c4 C2F34011 		ubfx	r1, r2, #5, #1
 700 01c8 61F3C713 		bfi	r3, r1, #7, #1
 701 01cc 2375     		strb	r3, [r4, #20]
 702 01ce 637D     		ldrb	r3, [r4, #21]	@ zero_extendqisi2
 703 01d0 C2F30011 		ubfx	r1, r2, #4, #1
 704 01d4 61F30003 		bfi	r3, r1, #0, #1
 705 01d8 C2F38101 		ubfx	r1, r2, #2, #2
 706 01dc 61F34203 		bfi	r3, r1, #1, #2
 707 01e0 62F3C403 		bfi	r3, r2, #3, #2
ARM GAS  /tmp/ccyH0WzS.s 			page 13


 708 01e4 9DF81F20 		ldrb	r2, [sp, #31]	@ zero_extendqisi2
 709 01e8 6375     		strb	r3, [r4, #21]
 710 01ea A37D     		ldrb	r3, [r4, #22]	@ zero_extendqisi2
 711 01ec 5108     		lsrs	r1, r2, #1
 712 01ee 61F30603 		bfi	r3, r1, #0, #7
 713 01f2 62F3C713 		bfi	r3, r2, #7, #1
 714 01f6 A375     		strb	r3, [r4, #22]
 715              	.L70:
 716 01f8 4FF40061 		mov	r1, #2048
 717 01fc 0122     		movs	r2, #1
 718 01fe 6348     		ldr	r0, .L84+4
 719 0200 FFF7FEFF 		bl	HAL_GPIO_WritePin
 720 0204 FF20     		movs	r0, #255
 721 0206 FFF7FEFF 		bl	SD_IO_WriteByte
 722 020a 0022     		movs	r2, #0
 723 020c FF23     		movs	r3, #255
 724 020e 0092     		str	r2, [sp]
 725 0210 02A8     		add	r0, sp, #8
 726 0212 0A21     		movs	r1, #10
 727 0214 FFF7FEFF 		bl	SD_SendCmd
 728 0218 9DF80830 		ldrb	r3, [sp, #8]	@ zero_extendqisi2
 729 021c 0BB1     		cbz	r3, .L75
 730              	.L77:
 731 021e 0125     		movs	r5, #1
 732 0220 6CE0     		b	.L76
 733              	.L75:
 734 0222 FFF7FEFF 		bl	SD_WaitData.constprop.0
 735 0226 0028     		cmp	r0, #0
 736 0228 F9D1     		bne	.L77
 737 022a 0546     		mov	r5, r0
 738              	.L78:
 739 022c FF20     		movs	r0, #255
 740 022e FFF7FEFF 		bl	SD_IO_WriteByte
 741 0232 04AB     		add	r3, sp, #16
 742 0234 5855     		strb	r0, [r3, r5]
 743 0236 0135     		adds	r5, r5, #1
 744 0238 102D     		cmp	r5, #16
 745 023a F7D1     		bne	.L78
 746 023c FF20     		movs	r0, #255
 747 023e FFF7FEFF 		bl	SD_IO_WriteByte
 748 0242 FF20     		movs	r0, #255
 749 0244 FFF7FEFF 		bl	SD_IO_WriteByte
 750 0248 9DF81030 		ldrb	r3, [sp, #16]	@ zero_extendqisi2
 751 024c 0025     		movs	r5, #0
 752 024e 2376     		strb	r3, [r4, #24]
 753 0250 9DF81130 		ldrb	r3, [sp, #17]	@ zero_extendqisi2
 754 0254 1B02     		lsls	r3, r3, #8
 755 0256 6383     		strh	r3, [r4, #26]	@ movhi
 756 0258 638B     		ldrh	r3, [r4, #26]
 757 025a 9AB2     		uxth	r2, r3
 758 025c 9DF81230 		ldrb	r3, [sp, #18]	@ zero_extendqisi2
 759 0260 1343     		orrs	r3, r3, r2
 760 0262 6383     		strh	r3, [r4, #26]	@ movhi
 761 0264 9DF81330 		ldrb	r3, [sp, #19]	@ zero_extendqisi2
 762 0268 9DF81420 		ldrb	r2, [sp, #20]	@ zero_extendqisi2
 763 026c 1B06     		lsls	r3, r3, #24
 764 026e E361     		str	r3, [r4, #28]
ARM GAS  /tmp/ccyH0WzS.s 			page 14


 765 0270 E369     		ldr	r3, [r4, #28]
 766 0272 43EA0243 		orr	r3, r3, r2, lsl #16
 767 0276 E361     		str	r3, [r4, #28]
 768 0278 E369     		ldr	r3, [r4, #28]
 769 027a 9DF81520 		ldrb	r2, [sp, #21]	@ zero_extendqisi2
 770 027e 43EA0223 		orr	r3, r3, r2, lsl #8
 771 0282 E361     		str	r3, [r4, #28]
 772 0284 E369     		ldr	r3, [r4, #28]
 773 0286 9DF81620 		ldrb	r2, [sp, #22]	@ zero_extendqisi2
 774 028a 1343     		orrs	r3, r3, r2
 775 028c E361     		str	r3, [r4, #28]
 776 028e 9DF81730 		ldrb	r3, [sp, #23]	@ zero_extendqisi2
 777 0292 9DF81A20 		ldrb	r2, [sp, #26]	@ zero_extendqisi2
 778 0296 84F82030 		strb	r3, [r4, #32]
 779 029a 9DF81830 		ldrb	r3, [sp, #24]	@ zero_extendqisi2
 780 029e 84F82130 		strb	r3, [r4, #33]
 781 02a2 9DF81930 		ldrb	r3, [sp, #25]	@ zero_extendqisi2
 782 02a6 1B06     		lsls	r3, r3, #24
 783 02a8 6362     		str	r3, [r4, #36]
 784 02aa 636A     		ldr	r3, [r4, #36]
 785 02ac 43EA0243 		orr	r3, r3, r2, lsl #16
 786 02b0 6362     		str	r3, [r4, #36]
 787 02b2 636A     		ldr	r3, [r4, #36]
 788 02b4 9DF81B20 		ldrb	r2, [sp, #27]	@ zero_extendqisi2
 789 02b8 43EA0223 		orr	r3, r3, r2, lsl #8
 790 02bc 6362     		str	r3, [r4, #36]
 791 02be 636A     		ldr	r3, [r4, #36]
 792 02c0 9DF81C20 		ldrb	r2, [sp, #28]	@ zero_extendqisi2
 793 02c4 1343     		orrs	r3, r3, r2
 794 02c6 6362     		str	r3, [r4, #36]
 795 02c8 94F82820 		ldrb	r2, [r4, #40]	@ zero_extendqisi2
 796 02cc 9DF81D30 		ldrb	r3, [sp, #29]	@ zero_extendqisi2
 797 02d0 42EA1312 		orr	r2, r2, r3, lsr #4
 798 02d4 03F00F03 		and	r3, r3, #15
 799 02d8 1B02     		lsls	r3, r3, #8
 800 02da 84F82820 		strb	r2, [r4, #40]
 801 02de 6385     		strh	r3, [r4, #42]	@ movhi
 802 02e0 638D     		ldrh	r3, [r4, #42]
 803 02e2 9AB2     		uxth	r2, r3
 804 02e4 9DF81E30 		ldrb	r3, [sp, #30]	@ zero_extendqisi2
 805 02e8 1343     		orrs	r3, r3, r2
 806 02ea 6385     		strh	r3, [r4, #42]	@ movhi
 807 02ec 9DF81F30 		ldrb	r3, [sp, #31]	@ zero_extendqisi2
 808 02f0 5B08     		lsrs	r3, r3, #1
 809 02f2 84F82C30 		strb	r3, [r4, #44]
 810 02f6 0123     		movs	r3, #1
 811 02f8 84F82D30 		strb	r3, [r4, #45]
 812              	.L76:
 813 02fc 2348     		ldr	r0, .L84+4
 814 02fe 4FF40061 		mov	r1, #2048
 815 0302 0122     		movs	r2, #1
 816 0304 FFF7FEFF 		bl	HAL_GPIO_WritePin
 817 0308 FF20     		movs	r0, #255
 818 030a FFF7FEFF 		bl	SD_IO_WriteByte
 819 030e 1E4B     		ldr	r3, .L84
 820 0310 3543     		orrs	r5, r5, r6
 821 0312 1B88     		ldrh	r3, [r3]
ARM GAS  /tmp/ccyH0WzS.s 			page 15


 822 0314 012B     		cmp	r3, #1
 823 0316 12D1     		bne	.L79
 824 0318 4FF40073 		mov	r3, #512
 825 031c 2364     		str	r3, [r4, #64]
 826 031e A363     		str	r3, [r4, #56]
 827 0320 A368     		ldr	r3, [r4, #8]
 828 0322 C3F39513 		ubfx	r3, r3, #6, #22
 829 0326 0133     		adds	r3, r3, #1
 830 0328 D917     		asrs	r1, r3, #31
 831 032a CA04     		lsls	r2, r1, #19
 832 032c 42EA5332 		orr	r2, r2, r3, lsr #13
 833 0330 DB04     		lsls	r3, r3, #19
 834 0332 2363     		str	r3, [r4, #48]
 835 0334 5B0A     		lsrs	r3, r3, #9
 836 0336 6263     		str	r2, [r4, #52]
 837 0338 43EAC253 		orr	r3, r3, r2, lsl #23
 838 033c 1FE0     		b	.L83
 839              	.L79:
 840 033e 2089     		ldrh	r0, [r4, #8]
 841 0340 227B     		ldrb	r2, [r4, #12]	@ zero_extendqisi2
 842 0342 C0F38B00 		ubfx	r0, r0, #2, #12
 843 0346 0130     		adds	r0, r0, #1
 844 0348 02F00702 		and	r2, r2, #7
 845 034c 0232     		adds	r2, r2, #2
 846 034e C117     		asrs	r1, r0, #31
 847 0350 FFF7FEFF 		bl	__aeabi_llsl
 848 0354 6279     		ldrb	r2, [r4, #5]	@ zero_extendqisi2
 849 0356 4FF40073 		mov	r3, #512
 850 035a 1209     		lsrs	r2, r2, #4
 851 035c 2364     		str	r3, [r4, #64]
 852 035e 0123     		movs	r3, #1
 853 0360 9340     		lsls	r3, r3, r2
 854 0362 DF17     		asrs	r7, r3, #31
 855 0364 00FB07F2 		mul	r2, r0, r7
 856 0368 03FB0122 		mla	r2, r3, r1, r2
 857 036c A0FB0301 		umull	r0, r1, r0, r3
 858 0370 1144     		add	r1, r1, r2
 859 0372 C4E90C01 		strd	r0, [r4, #48]
 860 0376 A363     		str	r3, [r4, #56]
 861 0378 430A     		lsrs	r3, r0, #9
 862 037a 43EAC153 		orr	r3, r3, r1, lsl #23
 863              	.L83:
 864 037e 2846     		mov	r0, r5
 865 0380 E363     		str	r3, [r4, #60]
 866 0382 09B0     		add	sp, sp, #36
 867              		@ sp needed
 868 0384 F0BD     		pop	{r4, r5, r6, r7, pc}
 869              	.L85:
 870 0386 00BF     		.align	2
 871              	.L84:
 872 0388 00000000 		.word	.LANCHOR1
 873 038c 000C0140 		.word	1073810432
 875              		.section	.text.BSP_SD_ReadBlocks,"ax",%progbits
 876              		.align	1
 877              		.global	BSP_SD_ReadBlocks
 878              		.thumb
 879              		.thumb_func
ARM GAS  /tmp/ccyH0WzS.s 			page 16


 881              	BSP_SD_ReadBlocks:
 882              		@ args = 0, pretend = 0, frame = 8
 883              		@ frame_needed = 0, uses_anonymous_args = 0
 884 0000 2DE9FF41 		push	{r0, r1, r2, r3, r4, r5, r6, r7, r8, lr}
 885 0004 0023     		movs	r3, #0
 886 0006 0093     		str	r3, [sp]
 887 0008 0746     		mov	r7, r0
 888 000a FF23     		movs	r3, #255
 889 000c 02A8     		add	r0, sp, #8
 890 000e 8846     		mov	r8, r1
 891 0010 1446     		mov	r4, r2
 892 0012 1021     		movs	r1, #16
 893 0014 4FF40072 		mov	r2, #512
 894 0018 FFF7FEFF 		bl	SD_SendCmd
 895 001c 9DF80850 		ldrb	r5, [sp, #8]	@ zero_extendqisi2
 896 0020 2D48     		ldr	r0, .L103
 897 0022 4FF40061 		mov	r1, #2048
 898 0026 0122     		movs	r2, #1
 899 0028 FFF7FEFF 		bl	HAL_GPIO_WritePin
 900 002c FF20     		movs	r0, #255
 901 002e FFF7FEFF 		bl	SD_IO_WriteByte
 902 0032 0DB1     		cbz	r5, .L87
 903              	.L89:
 904 0034 0026     		movs	r6, #0
 905 0036 3CE0     		b	.L96
 906              	.L87:
 907 0038 4FF40070 		mov	r0, #512
 908 003c FFF7FEFF 		bl	malloc
 909 0040 0646     		mov	r6, r0
 910 0042 0028     		cmp	r0, #0
 911 0044 F6D0     		beq	.L89
 912 0046 FF21     		movs	r1, #255
 913 0048 4FF40072 		mov	r2, #512
 914 004c FFF7FEFF 		bl	memset
 915              	.L90:
 916 0050 84B3     		cbz	r4, .L88
 917 0052 224B     		ldr	r3, .L103+4
 918 0054 0021     		movs	r1, #0
 919 0056 1B88     		ldrh	r3, [r3]
 920 0058 05EB0802 		add	r2, r5, r8
 921 005c 012B     		cmp	r3, #1
 922 005e 14BF     		ite	ne
 923 0060 4FF40073 		movne	r3, #512
 924 0064 0123     		moveq	r3, #1
 925 0066 0091     		str	r1, [sp]
 926 0068 5A43     		muls	r2, r3, r2
 927 006a 02A8     		add	r0, sp, #8
 928 006c FF23     		movs	r3, #255
 929 006e 1121     		movs	r1, #17
 930 0070 FFF7FEFF 		bl	SD_SendCmd
 931 0074 9DF80830 		ldrb	r3, [sp, #8]	@ zero_extendqisi2
 932 0078 DBB9     		cbnz	r3, .L96
 933 007a FFF7FEFF 		bl	SD_WaitData.constprop.0
 934 007e C0B9     		cbnz	r0, .L96
 935 0080 7919     		adds	r1, r7, r5
 936 0082 4FF40072 		mov	r2, #512
 937 0086 3046     		mov	r0, r6
ARM GAS  /tmp/ccyH0WzS.s 			page 17


 938 0088 FFF7FEFF 		bl	SPIx_WriteReadData1
 939 008c FF20     		movs	r0, #255
 940 008e FFF7FEFF 		bl	SD_IO_WriteByte
 941 0092 FF20     		movs	r0, #255
 942 0094 FFF7FEFF 		bl	SD_IO_WriteByte
 943 0098 0F48     		ldr	r0, .L103
 944 009a 4FF40061 		mov	r1, #2048
 945 009e 0122     		movs	r2, #1
 946 00a0 FFF7FEFF 		bl	HAL_GPIO_WritePin
 947 00a4 FF20     		movs	r0, #255
 948 00a6 05F50075 		add	r5, r5, #512
 949 00aa FFF7FEFF 		bl	SD_IO_WriteByte
 950 00ae 013C     		subs	r4, r4, #1
 951 00b0 CEE7     		b	.L90
 952              	.L96:
 953 00b2 0124     		movs	r4, #1
 954              	.L88:
 955 00b4 0848     		ldr	r0, .L103
 956 00b6 4FF40061 		mov	r1, #2048
 957 00ba 0122     		movs	r2, #1
 958 00bc FFF7FEFF 		bl	HAL_GPIO_WritePin
 959 00c0 FF20     		movs	r0, #255
 960 00c2 FFF7FEFF 		bl	SD_IO_WriteByte
 961 00c6 16B1     		cbz	r6, .L93
 962 00c8 3046     		mov	r0, r6
 963 00ca FFF7FEFF 		bl	free
 964              	.L93:
 965 00ce 2046     		mov	r0, r4
 966 00d0 04B0     		add	sp, sp, #16
 967              		@ sp needed
 968 00d2 BDE8F081 		pop	{r4, r5, r6, r7, r8, pc}
 969              	.L104:
 970 00d6 00BF     		.align	2
 971              	.L103:
 972 00d8 000C0140 		.word	1073810432
 973 00dc 00000000 		.word	.LANCHOR1
 975              		.section	.text.BSP_SD_WriteBlocks,"ax",%progbits
 976              		.align	1
 977              		.global	BSP_SD_WriteBlocks
 978              		.thumb
 979              		.thumb_func
 981              	BSP_SD_WriteBlocks:
 982              		@ args = 0, pretend = 0, frame = 8
 983              		@ frame_needed = 0, uses_anonymous_args = 0
 984 0000 2DE9FF47 		push	{r0, r1, r2, r3, r4, r5, r6, r7, r8, r9, r10, lr}
 985 0004 0023     		movs	r3, #0
 986 0006 0093     		str	r3, [sp]
 987 0008 8046     		mov	r8, r0
 988 000a FF23     		movs	r3, #255
 989 000c 02A8     		add	r0, sp, #8
 990 000e 8946     		mov	r9, r1
 991 0010 1446     		mov	r4, r2
 992 0012 1021     		movs	r1, #16
 993 0014 4FF40072 		mov	r2, #512
 994 0018 FFF7FEFF 		bl	SD_SendCmd
 995 001c 9DF80850 		ldrb	r5, [sp, #8]	@ zero_extendqisi2
 996 0020 3E48     		ldr	r0, .L124
ARM GAS  /tmp/ccyH0WzS.s 			page 18


 997 0022 4FF40061 		mov	r1, #2048
 998 0026 0122     		movs	r2, #1
 999 0028 FFF7FEFF 		bl	HAL_GPIO_WritePin
 1000 002c FF20     		movs	r0, #255
 1001 002e FFF7FEFF 		bl	SD_IO_WriteByte
 1002 0032 002D     		cmp	r5, #0
 1003 0034 63D1     		bne	.L106
 1004 0036 4FF40070 		mov	r0, #512
 1005 003a FFF7FEFF 		bl	malloc
 1006 003e 0646     		mov	r6, r0
 1007 0040 0028     		cmp	r0, #0
 1008 0042 5CD0     		beq	.L106
 1009              	.L107:
 1010 0044 002C     		cmp	r4, #0
 1011 0046 56D0     		beq	.L110
 1012 0048 354B     		ldr	r3, .L124+4
 1013 004a 0021     		movs	r1, #0
 1014 004c 1B88     		ldrh	r3, [r3]
 1015 004e 05EB0902 		add	r2, r5, r9
 1016 0052 012B     		cmp	r3, #1
 1017 0054 14BF     		ite	ne
 1018 0056 4FF40073 		movne	r3, #512
 1019 005a 0123     		moveq	r3, #1
 1020 005c 0091     		str	r1, [sp]
 1021 005e 5A43     		muls	r2, r3, r2
 1022 0060 02A8     		add	r0, sp, #8
 1023 0062 1821     		movs	r1, #24
 1024 0064 FF23     		movs	r3, #255
 1025 0066 FFF7FEFF 		bl	SD_SendCmd
 1026 006a 9DF808A0 		ldrb	r10, [sp, #8]	@ zero_extendqisi2
 1027 006e BAF1000F 		cmp	r10, #0
 1028 0072 3FD1     		bne	.L122
 1029 0074 FF20     		movs	r0, #255
 1030 0076 FFF7FEFF 		bl	SD_IO_WriteByte
 1031 007a FF20     		movs	r0, #255
 1032 007c FFF7FEFF 		bl	SD_IO_WriteByte
 1033 0080 FE20     		movs	r0, #254
 1034 0082 FFF7FEFF 		bl	SD_IO_WriteByte
 1035 0086 3146     		mov	r1, r6
 1036 0088 4FF40072 		mov	r2, #512
 1037 008c 08EB0500 		add	r0, r8, r5
 1038 0090 FFF7FEFF 		bl	SPIx_WriteReadData1
 1039 0094 FF20     		movs	r0, #255
 1040 0096 FFF7FEFF 		bl	SD_IO_WriteByte
 1041 009a FF20     		movs	r0, #255
 1042 009c FFF7FEFF 		bl	SD_IO_WriteByte
 1043 00a0 FF20     		movs	r0, #255
 1044 00a2 FFF7FEFF 		bl	SD_IO_WriteByte
 1045 00a6 0746     		mov	r7, r0
 1046 00a8 FF20     		movs	r0, #255
 1047 00aa 07F01F07 		and	r7, r7, #31
 1048 00ae FFF7FEFF 		bl	SD_IO_WriteByte
 1049 00b2 052F     		cmp	r7, #5
 1050 00b4 05F50075 		add	r5, r5, #512
 1051 00b8 1CD1     		bne	.L122
 1052 00ba 1848     		ldr	r0, .L124
 1053 00bc 4FF40061 		mov	r1, #2048
ARM GAS  /tmp/ccyH0WzS.s 			page 19


 1054 00c0 0122     		movs	r2, #1
 1055 00c2 FFF7FEFF 		bl	HAL_GPIO_WritePin
 1056 00c6 1548     		ldr	r0, .L124
 1057 00c8 4FF40061 		mov	r1, #2048
 1058 00cc 5246     		mov	r2, r10
 1059 00ce FFF7FEFF 		bl	HAL_GPIO_WritePin
 1060              	.L112:
 1061 00d2 FF20     		movs	r0, #255
 1062 00d4 FFF7FEFF 		bl	SD_IO_WriteByte
 1063 00d8 FF28     		cmp	r0, #255
 1064 00da 0746     		mov	r7, r0
 1065 00dc F9D1     		bne	.L112
 1066 00de 0F48     		ldr	r0, .L124
 1067 00e0 4FF40061 		mov	r1, #2048
 1068 00e4 0122     		movs	r2, #1
 1069 00e6 FFF7FEFF 		bl	HAL_GPIO_WritePin
 1070 00ea 3846     		mov	r0, r7
 1071 00ec FFF7FEFF 		bl	SD_IO_WriteByte
 1072 00f0 013C     		subs	r4, r4, #1
 1073 00f2 A7E7     		b	.L107
 1074              	.L122:
 1075 00f4 0124     		movs	r4, #1
 1076              	.L110:
 1077 00f6 3046     		mov	r0, r6
 1078 00f8 FFF7FEFF 		bl	free
 1079 00fc 00E0     		b	.L114
 1080              	.L106:
 1081 00fe 0124     		movs	r4, #1
 1082              	.L114:
 1083 0100 4FF40061 		mov	r1, #2048
 1084 0104 0122     		movs	r2, #1
 1085 0106 0548     		ldr	r0, .L124
 1086 0108 FFF7FEFF 		bl	HAL_GPIO_WritePin
 1087 010c FF20     		movs	r0, #255
 1088 010e FFF7FEFF 		bl	SD_IO_WriteByte
 1089 0112 2046     		mov	r0, r4
 1090 0114 04B0     		add	sp, sp, #16
 1091              		@ sp needed
 1092 0116 BDE8F087 		pop	{r4, r5, r6, r7, r8, r9, r10, pc}
 1093              	.L125:
 1094 011a 00BF     		.align	2
 1095              	.L124:
 1096 011c 000C0140 		.word	1073810432
 1097 0120 00000000 		.word	.LANCHOR1
 1099              		.section	.text.BSP_SD_Erase,"ax",%progbits
 1100              		.align	1
 1101              		.global	BSP_SD_Erase
 1102              		.thumb
 1103              		.thumb_func
 1105              	BSP_SD_Erase:
 1106              		@ args = 0, pretend = 0, frame = 8
 1107              		@ frame_needed = 0, uses_anonymous_args = 0
 1108 0000 7FB5     		push	{r0, r1, r2, r3, r4, r5, r6, lr}
 1109 0002 294E     		ldr	r6, .L134
 1110 0004 0C46     		mov	r4, r1
 1111 0006 3388     		ldrh	r3, [r6]
 1112 0008 2021     		movs	r1, #32
ARM GAS  /tmp/ccyH0WzS.s 			page 20


 1113 000a 012B     		cmp	r3, #1
 1114 000c 14BF     		ite	ne
 1115 000e 4FF40072 		movne	r2, #512
 1116 0012 0122     		moveq	r2, #1
 1117 0014 0023     		movs	r3, #0
 1118 0016 4243     		muls	r2, r0, r2
 1119 0018 0093     		str	r3, [sp]
 1120 001a 02A8     		add	r0, sp, #8
 1121 001c FF23     		movs	r3, #255
 1122 001e FFF7FEFF 		bl	SD_SendCmd
 1123 0022 9DF80850 		ldrb	r5, [sp, #8]	@ zero_extendqisi2
 1124 0026 2148     		ldr	r0, .L134+4
 1125 0028 4FF40061 		mov	r1, #2048
 1126 002c 0122     		movs	r2, #1
 1127 002e FFF7FEFF 		bl	HAL_GPIO_WritePin
 1128 0032 FF20     		movs	r0, #255
 1129 0034 FFF7FEFF 		bl	SD_IO_WriteByte
 1130 0038 0DB1     		cbz	r5, .L128
 1131              	.L131:
 1132 003a 0124     		movs	r4, #1
 1133 003c 30E0     		b	.L129
 1134              	.L128:
 1135 003e 3388     		ldrh	r3, [r6]
 1136 0040 6402     		lsls	r4, r4, #9
 1137 0042 012B     		cmp	r3, #1
 1138 0044 14BF     		ite	ne
 1139 0046 4FF40072 		movne	r2, #512
 1140 004a 0122     		moveq	r2, #1
 1141 004c 6243     		muls	r2, r4, r2
 1142 004e 02A8     		add	r0, sp, #8
 1143 0050 2121     		movs	r1, #33
 1144 0052 FF23     		movs	r3, #255
 1145 0054 0095     		str	r5, [sp]
 1146 0056 FFF7FEFF 		bl	SD_SendCmd
 1147 005a 9DF80840 		ldrb	r4, [sp, #8]	@ zero_extendqisi2
 1148 005e 1348     		ldr	r0, .L134+4
 1149 0060 4FF40061 		mov	r1, #2048
 1150 0064 0122     		movs	r2, #1
 1151 0066 FFF7FEFF 		bl	HAL_GPIO_WritePin
 1152 006a FF20     		movs	r0, #255
 1153 006c FFF7FEFF 		bl	SD_IO_WriteByte
 1154 0070 002C     		cmp	r4, #0
 1155 0072 E2D1     		bne	.L131
 1156 0074 0125     		movs	r5, #1
 1157 0076 2246     		mov	r2, r4
 1158 0078 02A8     		add	r0, sp, #8
 1159 007a 2621     		movs	r1, #38
 1160 007c FF23     		movs	r3, #255
 1161 007e 0095     		str	r5, [sp]
 1162 0080 FFF7FEFF 		bl	SD_SendCmd
 1163 0084 9DF80840 		ldrb	r4, [sp, #8]	@ zero_extendqisi2
 1164 0088 0848     		ldr	r0, .L134+4
 1165 008a 0034     		adds	r4, r4, #0
 1166 008c 4FF40061 		mov	r1, #2048
 1167 0090 2A46     		mov	r2, r5
 1168 0092 18BF     		it	ne
 1169 0094 0124     		movne	r4, #1
ARM GAS  /tmp/ccyH0WzS.s 			page 21


 1170 0096 FFF7FEFF 		bl	HAL_GPIO_WritePin
 1171 009a FF20     		movs	r0, #255
 1172 009c FFF7FEFF 		bl	SD_IO_WriteByte
 1173              	.L129:
 1174 00a0 2046     		mov	r0, r4
 1175 00a2 04B0     		add	sp, sp, #16
 1176              		@ sp needed
 1177 00a4 70BD     		pop	{r4, r5, r6, pc}
 1178              	.L135:
 1179 00a6 00BF     		.align	2
 1180              	.L134:
 1181 00a8 00000000 		.word	.LANCHOR1
 1182 00ac 000C0140 		.word	1073810432
 1184              		.section	.text.BSP_SD_GetCardState,"ax",%progbits
 1185              		.align	1
 1186              		.global	BSP_SD_GetCardState
 1187              		.thumb
 1188              		.thumb_func
 1190              	BSP_SD_GetCardState:
 1191              		@ args = 0, pretend = 0, frame = 8
 1192              		@ frame_needed = 0, uses_anonymous_args = 0
 1193 0000 1FB5     		push	{r0, r1, r2, r3, r4, lr}
 1194 0002 0223     		movs	r3, #2
 1195 0004 0093     		str	r3, [sp]
 1196 0006 02A8     		add	r0, sp, #8
 1197 0008 FF23     		movs	r3, #255
 1198 000a 0D21     		movs	r1, #13
 1199 000c 0022     		movs	r2, #0
 1200 000e FFF7FEFF 		bl	SD_SendCmd
 1201 0012 0B48     		ldr	r0, .L139
 1202 0014 4FF40061 		mov	r1, #2048
 1203 0018 0122     		movs	r2, #1
 1204 001a FFF7FEFF 		bl	HAL_GPIO_WritePin
 1205 001e FF20     		movs	r0, #255
 1206 0020 FFF7FEFF 		bl	SD_IO_WriteByte
 1207 0024 9DF80830 		ldrb	r3, [sp, #8]	@ zero_extendqisi2
 1208 0028 2BB9     		cbnz	r3, .L138
 1209 002a 9DF80900 		ldrb	r0, [sp, #9]	@ zero_extendqisi2
 1210 002e 0030     		adds	r0, r0, #0
 1211 0030 18BF     		it	ne
 1212 0032 0120     		movne	r0, #1
 1213 0034 00E0     		b	.L137
 1214              	.L138:
 1215 0036 0120     		movs	r0, #1
 1216              	.L137:
 1217 0038 05B0     		add	sp, sp, #20
 1218              		@ sp needed
 1219 003a 5DF804FB 		ldr	pc, [sp], #4
 1220              	.L140:
 1221 003e 00BF     		.align	2
 1222              	.L139:
 1223 0040 000C0140 		.word	1073810432
 1225              		.global	flag_SDHC
 1226              		.global	SdStatus
 1227              		.section	.bss.SdStatus,"aw",%nobits
 1228              		.set	.LANCHOR0,. + 0
 1231              	SdStatus:
ARM GAS  /tmp/ccyH0WzS.s 			page 22


 1232 0000 00       		.space	1
 1233              		.section	.bss.flag_SDHC,"aw",%nobits
 1234              		.align	1
 1235              		.set	.LANCHOR1,. + 0
 1238              	flag_SDHC:
 1239 0000 0000     		.space	2
 1240              		.ident	"GCC: (15:4.9.3+svn231177-1) 4.9.3 20150529 (prerelease)"
ARM GAS  /tmp/ccyH0WzS.s 			page 23

