ARM GAS  /tmp/ccvDEYVL.s 			page 1


   1              		.syntax unified
   2              		.cpu cortex-m3
   3              		.fpu softvfp
   4              		.eabi_attribute 20, 1
   5              		.eabi_attribute 21, 1
   6              		.eabi_attribute 23, 3
   7              		.eabi_attribute 24, 1
   8              		.eabi_attribute 25, 1
   9              		.eabi_attribute 26, 1
  10              		.eabi_attribute 30, 4
  11              		.eabi_attribute 34, 1
  12              		.eabi_attribute 18, 4
  13              		.thumb
  14              		.file	"stm32f1xx_hal.c"
  15              		.section	.text.HAL_MspInit,"ax",%progbits
  16              		.align	1
  17              		.weak	HAL_MspInit
  18              		.thumb
  19              		.thumb_func
  21              	HAL_MspInit:
  22              		@ args = 0, pretend = 0, frame = 0
  23              		@ frame_needed = 0, uses_anonymous_args = 0
  24              		@ link register save eliminated.
  25 0000 7047     		bx	lr
  27              		.section	.text.HAL_MspDeInit,"ax",%progbits
  28              		.align	1
  29              		.weak	HAL_MspDeInit
  30              		.thumb
  31              		.thumb_func
  33              	HAL_MspDeInit:
  34              		@ args = 0, pretend = 0, frame = 0
  35              		@ frame_needed = 0, uses_anonymous_args = 0
  36              		@ link register save eliminated.
  37 0000 7047     		bx	lr
  39              		.section	.text.HAL_DeInit,"ax",%progbits
  40              		.align	1
  41              		.global	HAL_DeInit
  42              		.thumb
  43              		.thumb_func
  45              	HAL_DeInit:
  46              		@ args = 0, pretend = 0, frame = 0
  47              		@ frame_needed = 0, uses_anonymous_args = 0
  48 0000 10B5     		push	{r4, lr}
  49 0002 064B     		ldr	r3, .L4
  50 0004 4FF0FF32 		mov	r2, #-1
  51 0008 0024     		movs	r4, #0
  52 000a DA60     		str	r2, [r3, #12]
  53 000c 1C61     		str	r4, [r3, #16]
  54 000e DA60     		str	r2, [r3, #12]
  55 0010 DC60     		str	r4, [r3, #12]
  56 0012 FFF7FEFF 		bl	HAL_MspDeInit
  57 0016 2046     		mov	r0, r4
  58 0018 10BD     		pop	{r4, pc}
  59              	.L5:
  60 001a 00BF     		.align	2
  61              	.L4:
  62 001c 00100240 		.word	1073876992
ARM GAS  /tmp/ccvDEYVL.s 			page 2


  64              		.section	.text.HAL_InitTick,"ax",%progbits
  65              		.align	1
  66              		.weak	HAL_InitTick
  67              		.thumb
  68              		.thumb_func
  70              	HAL_InitTick:
  71              		@ args = 0, pretend = 0, frame = 0
  72              		@ frame_needed = 0, uses_anonymous_args = 0
  73 0000 38B5     		push	{r3, r4, r5, lr}
  74 0002 0E4B     		ldr	r3, .L11
  75 0004 0546     		mov	r5, r0
  76 0006 1878     		ldrb	r0, [r3]	@ zero_extendqisi2
  77 0008 4FF47A73 		mov	r3, #1000
  78 000c B3FBF0F3 		udiv	r3, r3, r0
  79 0010 0B4A     		ldr	r2, .L11+4
  80 0012 1068     		ldr	r0, [r2]
  81 0014 B0FBF3F0 		udiv	r0, r0, r3
  82 0018 FFF7FEFF 		bl	HAL_SYSTICK_Config
  83 001c 0446     		mov	r4, r0
  84 001e 58B9     		cbnz	r0, .L9
  85 0020 0F2D     		cmp	r5, #15
  86 0022 09D8     		bhi	.L9
  87 0024 4FF0FF30 		mov	r0, #-1
  88 0028 2946     		mov	r1, r5
  89 002a 2246     		mov	r2, r4
  90 002c FFF7FEFF 		bl	HAL_NVIC_SetPriority
  91 0030 044B     		ldr	r3, .L11+8
  92 0032 2046     		mov	r0, r4
  93 0034 1D60     		str	r5, [r3]
  94 0036 38BD     		pop	{r3, r4, r5, pc}
  95              	.L9:
  96 0038 0120     		movs	r0, #1
  97 003a 38BD     		pop	{r3, r4, r5, pc}
  98              	.L12:
  99              		.align	2
 100              	.L11:
 101 003c 00000000 		.word	.LANCHOR0
 102 0040 00000000 		.word	SystemCoreClock
 103 0044 00000000 		.word	.LANCHOR1
 105              		.section	.text.HAL_Init,"ax",%progbits
 106              		.align	1
 107              		.global	HAL_Init
 108              		.thumb
 109              		.thumb_func
 111              	HAL_Init:
 112              		@ args = 0, pretend = 0, frame = 0
 113              		@ frame_needed = 0, uses_anonymous_args = 0
 114 0000 074A     		ldr	r2, .L14
 115 0002 08B5     		push	{r3, lr}
 116 0004 1368     		ldr	r3, [r2]
 117 0006 0320     		movs	r0, #3
 118 0008 43F01003 		orr	r3, r3, #16
 119 000c 1360     		str	r3, [r2]
 120 000e FFF7FEFF 		bl	HAL_NVIC_SetPriorityGrouping
 121 0012 0020     		movs	r0, #0
 122 0014 FFF7FEFF 		bl	HAL_InitTick
 123 0018 FFF7FEFF 		bl	HAL_MspInit
ARM GAS  /tmp/ccvDEYVL.s 			page 3


 124 001c 0020     		movs	r0, #0
 125 001e 08BD     		pop	{r3, pc}
 126              	.L15:
 127              		.align	2
 128              	.L14:
 129 0020 00200240 		.word	1073881088
 131              		.section	.text.HAL_IncTick,"ax",%progbits
 132              		.align	1
 133              		.weak	HAL_IncTick
 134              		.thumb
 135              		.thumb_func
 137              	HAL_IncTick:
 138              		@ args = 0, pretend = 0, frame = 0
 139              		@ frame_needed = 0, uses_anonymous_args = 0
 140              		@ link register save eliminated.
 141 0000 034A     		ldr	r2, .L17
 142 0002 0449     		ldr	r1, .L17+4
 143 0004 1368     		ldr	r3, [r2]
 144 0006 0978     		ldrb	r1, [r1]	@ zero_extendqisi2
 145 0008 0B44     		add	r3, r3, r1
 146 000a 1360     		str	r3, [r2]
 147 000c 7047     		bx	lr
 148              	.L18:
 149 000e 00BF     		.align	2
 150              	.L17:
 151 0010 00000000 		.word	uwTick
 152 0014 00000000 		.word	.LANCHOR0
 154              		.section	.text.HAL_GetTick,"ax",%progbits
 155              		.align	1
 156              		.weak	HAL_GetTick
 157              		.thumb
 158              		.thumb_func
 160              	HAL_GetTick:
 161              		@ args = 0, pretend = 0, frame = 0
 162              		@ frame_needed = 0, uses_anonymous_args = 0
 163              		@ link register save eliminated.
 164 0000 014B     		ldr	r3, .L20
 165 0002 1868     		ldr	r0, [r3]
 166 0004 7047     		bx	lr
 167              	.L21:
 168 0006 00BF     		.align	2
 169              	.L20:
 170 0008 00000000 		.word	uwTick
 172              		.section	.text.HAL_GetTickPrio,"ax",%progbits
 173              		.align	1
 174              		.global	HAL_GetTickPrio
 175              		.thumb
 176              		.thumb_func
 178              	HAL_GetTickPrio:
 179              		@ args = 0, pretend = 0, frame = 0
 180              		@ frame_needed = 0, uses_anonymous_args = 0
 181              		@ link register save eliminated.
 182 0000 014B     		ldr	r3, .L23
 183 0002 1868     		ldr	r0, [r3]
 184 0004 7047     		bx	lr
 185              	.L24:
 186 0006 00BF     		.align	2
ARM GAS  /tmp/ccvDEYVL.s 			page 4


 187              	.L23:
 188 0008 00000000 		.word	.LANCHOR1
 190              		.section	.text.HAL_SetTickFreq,"ax",%progbits
 191              		.align	1
 192              		.global	HAL_SetTickFreq
 193              		.thumb
 194              		.thumb_func
 196              	HAL_SetTickFreq:
 197              		@ args = 0, pretend = 0, frame = 0
 198              		@ frame_needed = 0, uses_anonymous_args = 0
 199 0000 08B5     		push	{r3, lr}
 200 0002 064B     		ldr	r3, .L28
 201 0004 1A78     		ldrb	r2, [r3]	@ zero_extendqisi2
 202 0006 8242     		cmp	r2, r0
 203 0008 05D0     		beq	.L27
 204 000a 1870     		strb	r0, [r3]
 205 000c 044B     		ldr	r3, .L28+4
 206 000e 1868     		ldr	r0, [r3]
 207 0010 FFF7FEFF 		bl	HAL_InitTick
 208 0014 08BD     		pop	{r3, pc}
 209              	.L27:
 210 0016 0020     		movs	r0, #0
 211 0018 08BD     		pop	{r3, pc}
 212              	.L29:
 213 001a 00BF     		.align	2
 214              	.L28:
 215 001c 00000000 		.word	.LANCHOR0
 216 0020 00000000 		.word	.LANCHOR1
 218              		.section	.text.HAL_GetTickFreq,"ax",%progbits
 219              		.align	1
 220              		.global	HAL_GetTickFreq
 221              		.thumb
 222              		.thumb_func
 224              	HAL_GetTickFreq:
 225              		@ args = 0, pretend = 0, frame = 0
 226              		@ frame_needed = 0, uses_anonymous_args = 0
 227              		@ link register save eliminated.
 228 0000 014B     		ldr	r3, .L31
 229 0002 1878     		ldrb	r0, [r3]	@ zero_extendqisi2
 230 0004 7047     		bx	lr
 231              	.L32:
 232 0006 00BF     		.align	2
 233              	.L31:
 234 0008 00000000 		.word	.LANCHOR0
 236              		.section	.text.HAL_Delay,"ax",%progbits
 237              		.align	1
 238              		.weak	HAL_Delay
 239              		.thumb
 240              		.thumb_func
 242              	HAL_Delay:
 243              		@ args = 0, pretend = 0, frame = 0
 244              		@ frame_needed = 0, uses_anonymous_args = 0
 245 0000 38B5     		push	{r3, r4, r5, lr}
 246 0002 0446     		mov	r4, r0
 247 0004 FFF7FEFF 		bl	HAL_GetTick
 248 0008 0546     		mov	r5, r0
 249 000a 631C     		adds	r3, r4, #1
ARM GAS  /tmp/ccvDEYVL.s 			page 5


 250 000c 1EBF     		ittt	ne
 251 000e 044B     		ldrne	r3, .L40
 252 0010 1B78     		ldrbne	r3, [r3]	@ zero_extendqisi2
 253 0012 E418     		addne	r4, r4, r3
 254              	.L35:
 255 0014 FFF7FEFF 		bl	HAL_GetTick
 256 0018 401B     		subs	r0, r0, r5
 257 001a A042     		cmp	r0, r4
 258 001c FAD3     		bcc	.L35
 259 001e 38BD     		pop	{r3, r4, r5, pc}
 260              	.L41:
 261              		.align	2
 262              	.L40:
 263 0020 00000000 		.word	.LANCHOR0
 265              		.section	.text.HAL_SuspendTick,"ax",%progbits
 266              		.align	1
 267              		.weak	HAL_SuspendTick
 268              		.thumb
 269              		.thumb_func
 271              	HAL_SuspendTick:
 272              		@ args = 0, pretend = 0, frame = 0
 273              		@ frame_needed = 0, uses_anonymous_args = 0
 274              		@ link register save eliminated.
 275 0000 024A     		ldr	r2, .L43
 276 0002 1368     		ldr	r3, [r2]
 277 0004 23F00203 		bic	r3, r3, #2
 278 0008 1360     		str	r3, [r2]
 279 000a 7047     		bx	lr
 280              	.L44:
 281              		.align	2
 282              	.L43:
 283 000c 10E000E0 		.word	-536813552
 285              		.section	.text.HAL_ResumeTick,"ax",%progbits
 286              		.align	1
 287              		.weak	HAL_ResumeTick
 288              		.thumb
 289              		.thumb_func
 291              	HAL_ResumeTick:
 292              		@ args = 0, pretend = 0, frame = 0
 293              		@ frame_needed = 0, uses_anonymous_args = 0
 294              		@ link register save eliminated.
 295 0000 024A     		ldr	r2, .L46
 296 0002 1368     		ldr	r3, [r2]
 297 0004 43F00203 		orr	r3, r3, #2
 298 0008 1360     		str	r3, [r2]
 299 000a 7047     		bx	lr
 300              	.L47:
 301              		.align	2
 302              	.L46:
 303 000c 10E000E0 		.word	-536813552
 305              		.section	.text.HAL_GetHalVersion,"ax",%progbits
 306              		.align	1
 307              		.global	HAL_GetHalVersion
 308              		.thumb
 309              		.thumb_func
 311              	HAL_GetHalVersion:
 312              		@ args = 0, pretend = 0, frame = 0
ARM GAS  /tmp/ccvDEYVL.s 			page 6


 313              		@ frame_needed = 0, uses_anonymous_args = 0
 314              		@ link register save eliminated.
 315 0000 0048     		ldr	r0, .L49
 316 0002 7047     		bx	lr
 317              	.L50:
 318              		.align	2
 319              	.L49:
 320 0004 00020101 		.word	16843264
 322              		.section	.text.HAL_GetREVID,"ax",%progbits
 323              		.align	1
 324              		.global	HAL_GetREVID
 325              		.thumb
 326              		.thumb_func
 328              	HAL_GetREVID:
 329              		@ args = 0, pretend = 0, frame = 0
 330              		@ frame_needed = 0, uses_anonymous_args = 0
 331              		@ link register save eliminated.
 332 0000 014B     		ldr	r3, .L52
 333 0002 1868     		ldr	r0, [r3]
 334 0004 000C     		lsrs	r0, r0, #16
 335 0006 7047     		bx	lr
 336              	.L53:
 337              		.align	2
 338              	.L52:
 339 0008 002004E0 		.word	-536600576
 341              		.section	.text.HAL_GetDEVID,"ax",%progbits
 342              		.align	1
 343              		.global	HAL_GetDEVID
 344              		.thumb
 345              		.thumb_func
 347              	HAL_GetDEVID:
 348              		@ args = 0, pretend = 0, frame = 0
 349              		@ frame_needed = 0, uses_anonymous_args = 0
 350              		@ link register save eliminated.
 351 0000 024B     		ldr	r3, .L55
 352 0002 1868     		ldr	r0, [r3]
 353 0004 C0F30B00 		ubfx	r0, r0, #0, #12
 354 0008 7047     		bx	lr
 355              	.L56:
 356 000a 00BF     		.align	2
 357              	.L55:
 358 000c 002004E0 		.word	-536600576
 360              		.section	.text.HAL_DBGMCU_EnableDBGSleepMode,"ax",%progbits
 361              		.align	1
 362              		.global	HAL_DBGMCU_EnableDBGSleepMode
 363              		.thumb
 364              		.thumb_func
 366              	HAL_DBGMCU_EnableDBGSleepMode:
 367              		@ args = 0, pretend = 0, frame = 0
 368              		@ frame_needed = 0, uses_anonymous_args = 0
 369              		@ link register save eliminated.
 370 0000 024A     		ldr	r2, .L58
 371 0002 5368     		ldr	r3, [r2, #4]
 372 0004 43F00103 		orr	r3, r3, #1
 373 0008 5360     		str	r3, [r2, #4]
 374 000a 7047     		bx	lr
 375              	.L59:
ARM GAS  /tmp/ccvDEYVL.s 			page 7


 376              		.align	2
 377              	.L58:
 378 000c 002004E0 		.word	-536600576
 380              		.section	.text.HAL_DBGMCU_DisableDBGSleepMode,"ax",%progbits
 381              		.align	1
 382              		.global	HAL_DBGMCU_DisableDBGSleepMode
 383              		.thumb
 384              		.thumb_func
 386              	HAL_DBGMCU_DisableDBGSleepMode:
 387              		@ args = 0, pretend = 0, frame = 0
 388              		@ frame_needed = 0, uses_anonymous_args = 0
 389              		@ link register save eliminated.
 390 0000 024A     		ldr	r2, .L61
 391 0002 5368     		ldr	r3, [r2, #4]
 392 0004 23F00103 		bic	r3, r3, #1
 393 0008 5360     		str	r3, [r2, #4]
 394 000a 7047     		bx	lr
 395              	.L62:
 396              		.align	2
 397              	.L61:
 398 000c 002004E0 		.word	-536600576
 400              		.section	.text.HAL_DBGMCU_EnableDBGStopMode,"ax",%progbits
 401              		.align	1
 402              		.global	HAL_DBGMCU_EnableDBGStopMode
 403              		.thumb
 404              		.thumb_func
 406              	HAL_DBGMCU_EnableDBGStopMode:
 407              		@ args = 0, pretend = 0, frame = 0
 408              		@ frame_needed = 0, uses_anonymous_args = 0
 409              		@ link register save eliminated.
 410 0000 024A     		ldr	r2, .L64
 411 0002 5368     		ldr	r3, [r2, #4]
 412 0004 43F00203 		orr	r3, r3, #2
 413 0008 5360     		str	r3, [r2, #4]
 414 000a 7047     		bx	lr
 415              	.L65:
 416              		.align	2
 417              	.L64:
 418 000c 002004E0 		.word	-536600576
 420              		.section	.text.HAL_DBGMCU_DisableDBGStopMode,"ax",%progbits
 421              		.align	1
 422              		.global	HAL_DBGMCU_DisableDBGStopMode
 423              		.thumb
 424              		.thumb_func
 426              	HAL_DBGMCU_DisableDBGStopMode:
 427              		@ args = 0, pretend = 0, frame = 0
 428              		@ frame_needed = 0, uses_anonymous_args = 0
 429              		@ link register save eliminated.
 430 0000 024A     		ldr	r2, .L67
 431 0002 5368     		ldr	r3, [r2, #4]
 432 0004 23F00203 		bic	r3, r3, #2
 433 0008 5360     		str	r3, [r2, #4]
 434 000a 7047     		bx	lr
 435              	.L68:
 436              		.align	2
 437              	.L67:
 438 000c 002004E0 		.word	-536600576
ARM GAS  /tmp/ccvDEYVL.s 			page 8


 440              		.section	.text.HAL_DBGMCU_EnableDBGStandbyMode,"ax",%progbits
 441              		.align	1
 442              		.global	HAL_DBGMCU_EnableDBGStandbyMode
 443              		.thumb
 444              		.thumb_func
 446              	HAL_DBGMCU_EnableDBGStandbyMode:
 447              		@ args = 0, pretend = 0, frame = 0
 448              		@ frame_needed = 0, uses_anonymous_args = 0
 449              		@ link register save eliminated.
 450 0000 024A     		ldr	r2, .L70
 451 0002 5368     		ldr	r3, [r2, #4]
 452 0004 43F00403 		orr	r3, r3, #4
 453 0008 5360     		str	r3, [r2, #4]
 454 000a 7047     		bx	lr
 455              	.L71:
 456              		.align	2
 457              	.L70:
 458 000c 002004E0 		.word	-536600576
 460              		.section	.text.HAL_DBGMCU_DisableDBGStandbyMode,"ax",%progbits
 461              		.align	1
 462              		.global	HAL_DBGMCU_DisableDBGStandbyMode
 463              		.thumb
 464              		.thumb_func
 466              	HAL_DBGMCU_DisableDBGStandbyMode:
 467              		@ args = 0, pretend = 0, frame = 0
 468              		@ frame_needed = 0, uses_anonymous_args = 0
 469              		@ link register save eliminated.
 470 0000 024A     		ldr	r2, .L73
 471 0002 5368     		ldr	r3, [r2, #4]
 472 0004 23F00403 		bic	r3, r3, #4
 473 0008 5360     		str	r3, [r2, #4]
 474 000a 7047     		bx	lr
 475              	.L74:
 476              		.align	2
 477              	.L73:
 478 000c 002004E0 		.word	-536600576
 480              		.section	.text.HAL_GetUID,"ax",%progbits
 481              		.align	1
 482              		.global	HAL_GetUID
 483              		.thumb
 484              		.thumb_func
 486              	HAL_GetUID:
 487              		@ args = 0, pretend = 0, frame = 0
 488              		@ frame_needed = 0, uses_anonymous_args = 0
 489              		@ link register save eliminated.
 490 0000 044B     		ldr	r3, .L76
 491 0002 1B68     		ldr	r3, [r3]
 492 0004 0360     		str	r3, [r0]
 493 0006 044B     		ldr	r3, .L76+4
 494 0008 1B68     		ldr	r3, [r3]
 495 000a 4360     		str	r3, [r0, #4]
 496 000c 034B     		ldr	r3, .L76+8
 497 000e 1B68     		ldr	r3, [r3]
 498 0010 8360     		str	r3, [r0, #8]
 499 0012 7047     		bx	lr
 500              	.L77:
 501              		.align	2
ARM GAS  /tmp/ccvDEYVL.s 			page 9


 502              	.L76:
 503 0014 E8F7FF1F 		.word	536868840
 504 0018 ECF7FF1F 		.word	536868844
 505 001c F0F7FF1F 		.word	536868848
 507              		.global	uwTickFreq
 508              		.global	uwTickPrio
 509              		.comm	uwTick,4,4
 510              		.section	.data.uwTickPrio,"aw",%progbits
 511              		.align	2
 512              		.set	.LANCHOR1,. + 0
 515              	uwTickPrio:
 516 0000 10000000 		.word	16
 517              		.section	.data.uwTickFreq,"aw",%progbits
 518              		.set	.LANCHOR0,. + 0
 521              	uwTickFreq:
 522 0000 01       		.byte	1
 523              		.ident	"GCC: (15:4.9.3+svn231177-1) 4.9.3 20150529 (prerelease)"
ARM GAS  /tmp/ccvDEYVL.s 			page 10

