ARM GAS  /tmp/ccy7Mi58.s 			page 1


   1              		.syntax unified
   2              		.cpu cortex-m3
   3              		.fpu softvfp
   4              		.eabi_attribute 20, 1
   5              		.eabi_attribute 21, 1
   6              		.eabi_attribute 23, 3
   7              		.eabi_attribute 24, 1
   8              		.eabi_attribute 25, 1
   9              		.eabi_attribute 26, 1
  10              		.eabi_attribute 30, 4
  11              		.eabi_attribute 34, 1
  12              		.eabi_attribute 18, 4
  13              		.thumb
  14              		.file	"stm32f1xx_hal_flash.c"
  15              		.section	.text.FLASH_SetErrorCode,"ax",%progbits
  16              		.align	1
  17              		.thumb
  18              		.thumb_func
  20              	FLASH_SetErrorCode:
  21              		@ args = 0, pretend = 0, frame = 0
  22              		@ frame_needed = 0, uses_anonymous_args = 0
  23              		@ link register save eliminated.
  24 0000 124A     		ldr	r2, .L13
  25 0002 D368     		ldr	r3, [r2, #12]
  26 0004 13F01003 		ands	r3, r3, #16
  27 0008 1FBF     		itttt	ne
  28 000a 1149     		ldrne	r1, .L13+4
  29 000c CB69     		ldrne	r3, [r1, #28]
  30 000e 43F00203 		orrne	r3, r3, #2
  31 0012 CB61     		strne	r3, [r1, #28]
  32 0014 D268     		ldr	r2, [r2, #12]
  33 0016 18BF     		it	ne
  34 0018 1023     		movne	r3, #16
  35 001a 5007     		lsls	r0, r2, #29
  36 001c 41BF     		itttt	mi
  37 001e 0C49     		ldrmi	r1, .L13+4
  38 0020 43F00403 		orrmi	r3, r3, #4
  39 0024 CA69     		ldrmi	r2, [r1, #28]
  40 0026 42F00102 		orrmi	r2, r2, #1
  41 002a 48BF     		it	mi
  42 002c CA61     		strmi	r2, [r1, #28]
  43 002e 074A     		ldr	r2, .L13
  44 0030 D169     		ldr	r1, [r2, #28]
  45 0032 C907     		lsls	r1, r1, #31
  46 0034 08D5     		bpl	.L4
  47 0036 0648     		ldr	r0, .L13+4
  48 0038 C169     		ldr	r1, [r0, #28]
  49 003a 41F00401 		orr	r1, r1, #4
  50 003e C161     		str	r1, [r0, #28]
  51 0040 D169     		ldr	r1, [r2, #28]
  52 0042 21F00101 		bic	r1, r1, #1
  53 0046 D161     		str	r1, [r2, #28]
  54              	.L4:
  55 0048 D360     		str	r3, [r2, #12]
  56 004a 7047     		bx	lr
  57              	.L14:
  58              		.align	2
ARM GAS  /tmp/ccy7Mi58.s 			page 2


  59              	.L13:
  60 004c 00200240 		.word	1073881088
  61 0050 00000000 		.word	pFlash
  63              		.section	.text.HAL_FLASH_Program_IT,"ax",%progbits
  64              		.align	1
  65              		.global	HAL_FLASH_Program_IT
  66              		.thumb
  67              		.thumb_func
  69              	HAL_FLASH_Program_IT:
  70              		@ args = 0, pretend = 0, frame = 0
  71              		@ frame_needed = 0, uses_anonymous_args = 0
  72 0000 70B5     		push	{r4, r5, r6, lr}
  73 0002 1D46     		mov	r5, r3
  74 0004 144B     		ldr	r3, .L22
  75 0006 1446     		mov	r4, r2
  76 0008 1A7E     		ldrb	r2, [r3, #24]	@ zero_extendqisi2
  77 000a 012A     		cmp	r2, #1
  78 000c 21D0     		beq	.L20
  79 000e 134E     		ldr	r6, .L22+4
  80 0010 0122     		movs	r2, #1
  81 0012 1A76     		strb	r2, [r3, #24]
  82 0014 3269     		ldr	r2, [r6, #16]
  83 0016 0128     		cmp	r0, #1
  84 0018 42F4A052 		orr	r2, r2, #5120
  85 001c 3261     		str	r2, [r6, #16]
  86 001e 9960     		str	r1, [r3, #8]
  87 0020 C3E90445 		strd	r4, [r3, #16]
  88 0024 01D1     		bne	.L17
  89 0026 0322     		movs	r2, #3
  90 0028 03E0     		b	.L21
  91              	.L17:
  92 002a 0228     		cmp	r0, #2
  93 002c 4FF00402 		mov	r2, #4
  94 0030 02D1     		bne	.L19
  95              	.L21:
  96 0032 1A70     		strb	r2, [r3]
  97 0034 5860     		str	r0, [r3, #4]
  98 0036 02E0     		b	.L18
  99              	.L19:
 100 0038 0520     		movs	r0, #5
 101 003a 1870     		strb	r0, [r3]
 102 003c 5A60     		str	r2, [r3, #4]
 103              	.L18:
 104 003e 074A     		ldr	r2, .L22+4
 105 0040 0020     		movs	r0, #0
 106 0042 D861     		str	r0, [r3, #28]
 107 0044 1369     		ldr	r3, [r2, #16]
 108 0046 A4B2     		uxth	r4, r4
 109 0048 43F00103 		orr	r3, r3, #1
 110 004c 1361     		str	r3, [r2, #16]
 111 004e 0C80     		strh	r4, [r1]	@ movhi
 112 0050 70BD     		pop	{r4, r5, r6, pc}
 113              	.L20:
 114 0052 0220     		movs	r0, #2
 115 0054 70BD     		pop	{r4, r5, r6, pc}
 116              	.L23:
 117 0056 00BF     		.align	2
ARM GAS  /tmp/ccy7Mi58.s 			page 3


 118              	.L22:
 119 0058 00000000 		.word	pFlash
 120 005c 00200240 		.word	1073881088
 122              		.section	.text.HAL_FLASH_EndOfOperationCallback,"ax",%progbits
 123              		.align	1
 124              		.weak	HAL_FLASH_EndOfOperationCallback
 125              		.thumb
 126              		.thumb_func
 128              	HAL_FLASH_EndOfOperationCallback:
 129              		@ args = 0, pretend = 0, frame = 0
 130              		@ frame_needed = 0, uses_anonymous_args = 0
 131              		@ link register save eliminated.
 132 0000 7047     		bx	lr
 134              		.section	.text.HAL_FLASH_OperationErrorCallback,"ax",%progbits
 135              		.align	1
 136              		.weak	HAL_FLASH_OperationErrorCallback
 137              		.thumb
 138              		.thumb_func
 140              	HAL_FLASH_OperationErrorCallback:
 141              		@ args = 0, pretend = 0, frame = 0
 142              		@ frame_needed = 0, uses_anonymous_args = 0
 143              		@ link register save eliminated.
 144 0000 7047     		bx	lr
 146              		.section	.text.HAL_FLASH_IRQHandler,"ax",%progbits
 147              		.align	1
 148              		.global	HAL_FLASH_IRQHandler
 149              		.thumb
 150              		.thumb_func
 152              	HAL_FLASH_IRQHandler:
 153              		@ args = 0, pretend = 0, frame = 0
 154              		@ frame_needed = 0, uses_anonymous_args = 0
 155 0000 474B     		ldr	r3, .L47
 156 0002 2DE97043 		push	{r4, r5, r6, r8, r9, lr}
 157 0006 DA68     		ldr	r2, [r3, #12]
 158 0008 464E     		ldr	r6, .L47+4
 159 000a 12F0100F 		tst	r2, #16
 160 000e 02D1     		bne	.L27
 161 0010 DB68     		ldr	r3, [r3, #12]
 162 0012 5A07     		lsls	r2, r3, #29
 163 0014 0AD5     		bpl	.L28
 164              	.L27:
 165 0016 B468     		ldr	r4, [r6, #8]
 166 0018 4FF0FF33 		mov	r3, #-1
 167 001c B360     		str	r3, [r6, #8]
 168 001e FFF7FEFF 		bl	FLASH_SetErrorCode
 169 0022 2046     		mov	r0, r4
 170 0024 FFF7FEFF 		bl	HAL_FLASH_OperationErrorCallback
 171 0028 0023     		movs	r3, #0
 172 002a 3370     		strb	r3, [r6]
 173              	.L28:
 174 002c 3C4D     		ldr	r5, .L47
 175 002e EB68     		ldr	r3, [r5, #12]
 176 0030 9B06     		lsls	r3, r3, #26
 177 0032 63D5     		bpl	.L30
 178 0034 2023     		movs	r3, #32
 179 0036 EB60     		str	r3, [r5, #12]
 180 0038 3378     		ldrb	r3, [r6]	@ zero_extendqisi2
ARM GAS  /tmp/ccy7Mi58.s 			page 4


 181 003a 3A4C     		ldr	r4, .L47+4
 182 003c 002B     		cmp	r3, #0
 183 003e 5DD0     		beq	.L30
 184 0040 2378     		ldrb	r3, [r4]	@ zero_extendqisi2
 185 0042 012B     		cmp	r3, #1
 186 0044 19D1     		bne	.L32
 187 0046 6368     		ldr	r3, [r4, #4]
 188 0048 013B     		subs	r3, r3, #1
 189 004a 6360     		str	r3, [r4, #4]
 190 004c 6368     		ldr	r3, [r4, #4]
 191 004e 6BB1     		cbz	r3, .L33
 192 0050 A068     		ldr	r0, [r4, #8]
 193 0052 FFF7FEFF 		bl	HAL_FLASH_EndOfOperationCallback
 194 0056 A068     		ldr	r0, [r4, #8]
 195 0058 00F58060 		add	r0, r0, #1024
 196 005c A060     		str	r0, [r4, #8]
 197 005e 2B69     		ldr	r3, [r5, #16]
 198 0060 23F00203 		bic	r3, r3, #2
 199 0064 2B61     		str	r3, [r5, #16]
 200 0066 FFF7FEFF 		bl	FLASH_PageErase
 201 006a 47E0     		b	.L30
 202              	.L33:
 203 006c 4FF0FF30 		mov	r0, #-1
 204 0070 A060     		str	r0, [r4, #8]
 205 0072 2370     		strb	r3, [r4]
 206 0074 FFF7FEFF 		bl	HAL_FLASH_EndOfOperationCallback
 207 0078 40E0     		b	.L30
 208              	.L32:
 209 007a 2378     		ldrb	r3, [r4]	@ zero_extendqisi2
 210 007c 022B     		cmp	r3, #2
 211 007e 09D1     		bne	.L34
 212 0080 2B69     		ldr	r3, [r5, #16]
 213 0082 0020     		movs	r0, #0
 214 0084 23F00403 		bic	r3, r3, #4
 215 0088 2B61     		str	r3, [r5, #16]
 216 008a FFF7FEFF 		bl	HAL_FLASH_EndOfOperationCallback
 217 008e 0023     		movs	r3, #0
 218 0090 2370     		strb	r3, [r4]
 219 0092 33E0     		b	.L30
 220              	.L34:
 221 0094 6368     		ldr	r3, [r4, #4]
 222 0096 013B     		subs	r3, r3, #1
 223 0098 6360     		str	r3, [r4, #4]
 224 009a 6368     		ldr	r3, [r4, #4]
 225 009c E3B1     		cbz	r3, .L35
 226 009e A368     		ldr	r3, [r4, #8]
 227 00a0 0233     		adds	r3, r3, #2
 228 00a2 A360     		str	r3, [r4, #8]
 229 00a4 A168     		ldr	r1, [r4, #8]
 230 00a6 D4E90489 		ldrd	r8, [r4, #16]
 231 00aa 4FEA1842 		lsr	r2, r8, #16
 232 00ae 42EA0942 		orr	r2, r2, r9, lsl #16
 233 00b2 4FEA1943 		lsr	r3, r9, #16
 234 00b6 C4E90423 		strd	r2, [r4, #16]
 235 00ba 2B69     		ldr	r3, [r5, #16]
 236 00bc 23F00103 		bic	r3, r3, #1
 237 00c0 2B61     		str	r3, [r5, #16]
ARM GAS  /tmp/ccy7Mi58.s 			page 5


 238 00c2 D4E90423 		ldrd	r2, [r4, #16]
 239 00c6 0023     		movs	r3, #0
 240 00c8 E361     		str	r3, [r4, #28]
 241 00ca 2B69     		ldr	r3, [r5, #16]
 242 00cc 92B2     		uxth	r2, r2
 243 00ce 43F00103 		orr	r3, r3, #1
 244 00d2 2B61     		str	r3, [r5, #16]
 245 00d4 0A80     		strh	r2, [r1]	@ movhi
 246 00d6 11E0     		b	.L30
 247              	.L35:
 248 00d8 2378     		ldrb	r3, [r4]	@ zero_extendqisi2
 249 00da 032B     		cmp	r3, #3
 250 00dc 01D1     		bne	.L36
 251 00de A068     		ldr	r0, [r4, #8]
 252 00e0 05E0     		b	.L46
 253              	.L36:
 254 00e2 2378     		ldrb	r3, [r4]	@ zero_extendqisi2
 255 00e4 A068     		ldr	r0, [r4, #8]
 256 00e6 042B     		cmp	r3, #4
 257 00e8 0CBF     		ite	eq
 258 00ea 0238     		subeq	r0, r0, #2
 259 00ec 0638     		subne	r0, r0, #6
 260              	.L46:
 261 00ee FFF7FEFF 		bl	HAL_FLASH_EndOfOperationCallback
 262 00f2 4FF0FF33 		mov	r3, #-1
 263 00f6 B360     		str	r3, [r6, #8]
 264 00f8 0023     		movs	r3, #0
 265 00fa 3370     		strb	r3, [r6]
 266              	.L30:
 267 00fc 3378     		ldrb	r3, [r6]	@ zero_extendqisi2
 268 00fe 03F0FF01 		and	r1, r3, #255
 269 0102 53B9     		cbnz	r3, .L26
 270 0104 064B     		ldr	r3, .L47
 271 0106 1A69     		ldr	r2, [r3, #16]
 272 0108 22F00702 		bic	r2, r2, #7
 273 010c 1A61     		str	r2, [r3, #16]
 274 010e 1A69     		ldr	r2, [r3, #16]
 275 0110 22F4A052 		bic	r2, r2, #5120
 276 0114 1A61     		str	r2, [r3, #16]
 277 0116 034B     		ldr	r3, .L47+4
 278 0118 1976     		strb	r1, [r3, #24]
 279              	.L26:
 280 011a BDE87083 		pop	{r4, r5, r6, r8, r9, pc}
 281              	.L48:
 282 011e 00BF     		.align	2
 283              	.L47:
 284 0120 00200240 		.word	1073881088
 285 0124 00000000 		.word	pFlash
 287              		.section	.text.HAL_FLASH_Unlock,"ax",%progbits
 288              		.align	1
 289              		.global	HAL_FLASH_Unlock
 290              		.thumb
 291              		.thumb_func
 293              	HAL_FLASH_Unlock:
 294              		@ args = 0, pretend = 0, frame = 0
 295              		@ frame_needed = 0, uses_anonymous_args = 0
 296              		@ link register save eliminated.
ARM GAS  /tmp/ccy7Mi58.s 			page 6


 297 0000 074B     		ldr	r3, .L52
 298 0002 1869     		ldr	r0, [r3, #16]
 299 0004 10F08000 		ands	r0, r0, #128
 300 0008 1FBF     		itttt	ne
 301 000a 064A     		ldrne	r2, .L52+4
 302 000c 5A60     		strne	r2, [r3, #4]
 303 000e 02F18832 		addne	r2, r2, #-2004318072
 304 0012 5A60     		strne	r2, [r3, #4]
 305 0014 1CBF     		itt	ne
 306 0016 1869     		ldrne	r0, [r3, #16]
 307 0018 C0F3C010 		ubfxne	r0, r0, #7, #1
 308 001c 7047     		bx	lr
 309              	.L53:
 310 001e 00BF     		.align	2
 311              	.L52:
 312 0020 00200240 		.word	1073881088
 313 0024 23016745 		.word	1164378403
 315              		.section	.text.HAL_FLASH_Lock,"ax",%progbits
 316              		.align	1
 317              		.global	HAL_FLASH_Lock
 318              		.thumb
 319              		.thumb_func
 321              	HAL_FLASH_Lock:
 322              		@ args = 0, pretend = 0, frame = 0
 323              		@ frame_needed = 0, uses_anonymous_args = 0
 324              		@ link register save eliminated.
 325 0000 034A     		ldr	r2, .L55
 326 0002 0020     		movs	r0, #0
 327 0004 1369     		ldr	r3, [r2, #16]
 328 0006 43F08003 		orr	r3, r3, #128
 329 000a 1361     		str	r3, [r2, #16]
 330 000c 7047     		bx	lr
 331              	.L56:
 332 000e 00BF     		.align	2
 333              	.L55:
 334 0010 00200240 		.word	1073881088
 336              		.section	.text.HAL_FLASH_OB_Unlock,"ax",%progbits
 337              		.align	1
 338              		.global	HAL_FLASH_OB_Unlock
 339              		.thumb
 340              		.thumb_func
 342              	HAL_FLASH_OB_Unlock:
 343              		@ args = 0, pretend = 0, frame = 0
 344              		@ frame_needed = 0, uses_anonymous_args = 0
 345              		@ link register save eliminated.
 346 0000 064B     		ldr	r3, .L60
 347 0002 1869     		ldr	r0, [r3, #16]
 348 0004 10F40070 		ands	r0, r0, #512
 349 0008 09BF     		itett	eq
 350 000a 054A     		ldreq	r2, .L60+4
 351 000c 0120     		movne	r0, #1
 352 000e 9A60     		streq	r2, [r3, #8]
 353 0010 02F18832 		addeq	r2, r2, #-2004318072
 354 0014 08BF     		it	eq
 355 0016 9A60     		streq	r2, [r3, #8]
 356 0018 7047     		bx	lr
 357              	.L61:
ARM GAS  /tmp/ccy7Mi58.s 			page 7


 358 001a 00BF     		.align	2
 359              	.L60:
 360 001c 00200240 		.word	1073881088
 361 0020 23016745 		.word	1164378403
 363              		.section	.text.HAL_FLASH_OB_Lock,"ax",%progbits
 364              		.align	1
 365              		.global	HAL_FLASH_OB_Lock
 366              		.thumb
 367              		.thumb_func
 369              	HAL_FLASH_OB_Lock:
 370              		@ args = 0, pretend = 0, frame = 0
 371              		@ frame_needed = 0, uses_anonymous_args = 0
 372              		@ link register save eliminated.
 373 0000 034A     		ldr	r2, .L63
 374 0002 0020     		movs	r0, #0
 375 0004 1369     		ldr	r3, [r2, #16]
 376 0006 23F40073 		bic	r3, r3, #512
 377 000a 1361     		str	r3, [r2, #16]
 378 000c 7047     		bx	lr
 379              	.L64:
 380 000e 00BF     		.align	2
 381              	.L63:
 382 0010 00200240 		.word	1073881088
 384              		.section	.text.HAL_FLASH_OB_Launch,"ax",%progbits
 385              		.align	1
 386              		.global	HAL_FLASH_OB_Launch
 387              		.thumb
 388              		.thumb_func
 390              	HAL_FLASH_OB_Launch:
 391              		@ args = 0, pretend = 0, frame = 0
 392              		@ frame_needed = 0, uses_anonymous_args = 0
 393              		@ link register save eliminated.
 394 0000 FFF7FEBF 		b	HAL_NVIC_SystemReset
 396              		.section	.text.HAL_FLASH_GetError,"ax",%progbits
 397              		.align	1
 398              		.global	HAL_FLASH_GetError
 399              		.thumb
 400              		.thumb_func
 402              	HAL_FLASH_GetError:
 403              		@ args = 0, pretend = 0, frame = 0
 404              		@ frame_needed = 0, uses_anonymous_args = 0
 405              		@ link register save eliminated.
 406 0000 014B     		ldr	r3, .L67
 407 0002 D869     		ldr	r0, [r3, #28]
 408 0004 7047     		bx	lr
 409              	.L68:
 410 0006 00BF     		.align	2
 411              	.L67:
 412 0008 00000000 		.word	pFlash
 414              		.section	.text.FLASH_WaitForLastOperation,"ax",%progbits
 415              		.align	1
 416              		.global	FLASH_WaitForLastOperation
 417              		.thumb
 418              		.thumb_func
 420              	FLASH_WaitForLastOperation:
 421              		@ args = 0, pretend = 0, frame = 0
 422              		@ frame_needed = 0, uses_anonymous_args = 0
ARM GAS  /tmp/ccy7Mi58.s 			page 8


 423 0000 38B5     		push	{r3, r4, r5, lr}
 424 0002 0446     		mov	r4, r0
 425 0004 FFF7FEFF 		bl	HAL_GetTick
 426 0008 0546     		mov	r5, r0
 427              	.L71:
 428 000a 114B     		ldr	r3, .L85
 429 000c DA68     		ldr	r2, [r3, #12]
 430 000e D207     		lsls	r2, r2, #31
 431 0010 0AD5     		bpl	.L84
 432 0012 611C     		adds	r1, r4, #1
 433 0014 F9D0     		beq	.L71
 434 0016 0CB9     		cbnz	r4, .L72
 435              	.L74:
 436 0018 0320     		movs	r0, #3
 437 001a 38BD     		pop	{r3, r4, r5, pc}
 438              	.L72:
 439 001c FFF7FEFF 		bl	HAL_GetTick
 440 0020 401B     		subs	r0, r0, r5
 441 0022 A042     		cmp	r0, r4
 442 0024 F1D9     		bls	.L71
 443 0026 F7E7     		b	.L74
 444              	.L84:
 445 0028 DA68     		ldr	r2, [r3, #12]
 446 002a 9006     		lsls	r0, r2, #26
 447 002c 44BF     		itt	mi
 448 002e 2022     		movmi	r2, #32
 449 0030 DA60     		strmi	r2, [r3, #12]
 450 0032 DB68     		ldr	r3, [r3, #12]
 451 0034 064A     		ldr	r2, .L85
 452 0036 D906     		lsls	r1, r3, #27
 453 0038 06D4     		bmi	.L77
 454 003a D369     		ldr	r3, [r2, #28]
 455 003c DB07     		lsls	r3, r3, #31
 456 003e 03D4     		bmi	.L77
 457 0040 D068     		ldr	r0, [r2, #12]
 458 0042 10F00400 		ands	r0, r0, #4
 459 0046 02D0     		beq	.L73
 460              	.L77:
 461 0048 FFF7FEFF 		bl	FLASH_SetErrorCode
 462 004c 0120     		movs	r0, #1
 463              	.L73:
 464 004e 38BD     		pop	{r3, r4, r5, pc}
 465              	.L86:
 466              		.align	2
 467              	.L85:
 468 0050 00200240 		.word	1073881088
 470              		.global	__aeabi_llsr
 471              		.section	.text.HAL_FLASH_Program,"ax",%progbits
 472              		.align	1
 473              		.global	HAL_FLASH_Program
 474              		.thumb
 475              		.thumb_func
 477              	HAL_FLASH_Program:
 478              		@ args = 0, pretend = 0, frame = 0
 479              		@ frame_needed = 0, uses_anonymous_args = 0
 480 0000 2DE9F84F 		push	{r3, r4, r5, r6, r7, r8, r9, r10, fp, lr}
 481 0004 204D     		ldr	r5, .L97
ARM GAS  /tmp/ccy7Mi58.s 			page 9


 482 0006 9946     		mov	r9, r3
 483 0008 2B7E     		ldrb	r3, [r5, #24]	@ zero_extendqisi2
 484 000a 0646     		mov	r6, r0
 485 000c 012B     		cmp	r3, #1
 486 000e 8B46     		mov	fp, r1
 487 0010 9046     		mov	r8, r2
 488 0012 36D0     		beq	.L93
 489 0014 0123     		movs	r3, #1
 490 0016 4CF25030 		movw	r0, #50000
 491 001a 2B76     		strb	r3, [r5, #24]
 492 001c FFF7FEFF 		bl	FLASH_WaitForLastOperation
 493 0020 0446     		mov	r4, r0
 494 0022 48BB     		cbnz	r0, .L89
 495 0024 012E     		cmp	r6, #1
 496 0026 03D0     		beq	.L90
 497 0028 022E     		cmp	r6, #2
 498 002a 0CBF     		ite	eq
 499 002c 0226     		moveq	r6, #2
 500 002e 0426     		movne	r6, #4
 501              	.L90:
 502 0030 0027     		movs	r7, #0
 503              	.L91:
 504 0032 FBB2     		uxtb	r3, r7
 505 0034 B342     		cmp	r3, r6
 506 0036 1FD2     		bcs	.L89
 507 0038 3A01     		lsls	r2, r7, #4
 508 003a 4046     		mov	r0, r8
 509 003c 4946     		mov	r1, r9
 510 003e FFF7FEFF 		bl	__aeabi_llsr
 511 0042 DFF848A0 		ldr	r10, .L97+4
 512 0046 0023     		movs	r3, #0
 513 0048 EB61     		str	r3, [r5, #28]
 514 004a DAF81030 		ldr	r3, [r10, #16]
 515 004e 80B2     		uxth	r0, r0
 516 0050 43F00103 		orr	r3, r3, #1
 517 0054 CAF81030 		str	r3, [r10, #16]
 518 0058 2BF81700 		strh	r0, [fp, r7, lsl #1]	@ movhi
 519 005c 4CF25030 		movw	r0, #50000
 520 0060 FFF7FEFF 		bl	FLASH_WaitForLastOperation
 521 0064 DAF81030 		ldr	r3, [r10, #16]
 522 0068 0137     		adds	r7, r7, #1
 523 006a 23F00103 		bic	r3, r3, #1
 524 006e CAF81030 		str	r3, [r10, #16]
 525 0072 0028     		cmp	r0, #0
 526 0074 DDD0     		beq	.L91
 527 0076 0446     		mov	r4, r0
 528              	.L89:
 529 0078 0023     		movs	r3, #0
 530 007a 2B76     		strb	r3, [r5, #24]
 531 007c 2046     		mov	r0, r4
 532 007e BDE8F88F 		pop	{r3, r4, r5, r6, r7, r8, r9, r10, fp, pc}
 533              	.L93:
 534 0082 0220     		movs	r0, #2
 535 0084 BDE8F88F 		pop	{r3, r4, r5, r6, r7, r8, r9, r10, fp, pc}
 536              	.L98:
 537              		.align	2
 538              	.L97:
ARM GAS  /tmp/ccy7Mi58.s 			page 10


 539 0088 00000000 		.word	pFlash
 540 008c 00200240 		.word	1073881088
 542              		.comm	pFlash,32,8
 543              		.ident	"GCC: (15:4.9.3+svn231177-1) 4.9.3 20150529 (prerelease)"
ARM GAS  /tmp/ccy7Mi58.s 			page 11

