ARM GAS  /tmp/ccWamGgH.s 			page 1


   1              		.syntax unified
   2              		.cpu cortex-m3
   3              		.fpu softvfp
   4              		.eabi_attribute 20, 1
   5              		.eabi_attribute 21, 1
   6              		.eabi_attribute 23, 3
   7              		.eabi_attribute 24, 1
   8              		.eabi_attribute 25, 1
   9              		.eabi_attribute 26, 1
  10              		.eabi_attribute 30, 4
  11              		.eabi_attribute 34, 1
  12              		.eabi_attribute 18, 4
  13              		.thumb
  14              		.file	"stm32f1xx_hal_gpio.c"
  15              		.section	.text.HAL_GPIO_Init,"ax",%progbits
  16              		.align	1
  17              		.global	HAL_GPIO_Init
  18              		.thumb
  19              		.thumb_func
  21              	HAL_GPIO_Init:
  22              		@ args = 0, pretend = 0, frame = 8
  23              		@ frame_needed = 0, uses_anonymous_args = 0
  24 0000 0023     		movs	r3, #0
  25 0002 F7B5     		push	{r0, r1, r2, r4, r5, r6, r7, lr}
  26 0004 1D46     		mov	r5, r3
  27              	.L24:
  28 0006 0122     		movs	r2, #1
  29 0008 0C68     		ldr	r4, [r1]
  30 000a AA40     		lsls	r2, r2, r5
  31 000c 1440     		ands	r4, r4, r2
  32 000e 9442     		cmp	r4, r2
  33 0010 40F0AC80 		bne	.L2
  34 0014 4A68     		ldr	r2, [r1, #4]
  35 0016 122A     		cmp	r2, #18
  36 0018 2BD0     		beq	.L4
  37 001a 0ED8     		bhi	.L5
  38 001c 022A     		cmp	r2, #2
  39 001e 25D0     		beq	.L6
  40 0020 04D8     		bhi	.L7
  41 0022 4AB3     		cbz	r2, .L8
  42 0024 012A     		cmp	r2, #1
  43 0026 30D1     		bne	.L3
  44 0028 CB68     		ldr	r3, [r1, #12]
  45 002a 2EE0     		b	.L3
  46              	.L7:
  47 002c 032A     		cmp	r2, #3
  48 002e 1BD0     		beq	.L10
  49 0030 112A     		cmp	r2, #17
  50 0032 2AD1     		bne	.L3
  51 0034 CB68     		ldr	r3, [r1, #12]
  52 0036 0433     		adds	r3, r3, #4
  53 0038 27E0     		b	.L3
  54              	.L5:
  55 003a 4F4E     		ldr	r6, .L45
  56 003c B242     		cmp	r2, r6
  57 003e 1BD0     		beq	.L8
  58 0040 06D8     		bhi	.L12
ARM GAS  /tmp/ccWamGgH.s 			page 2


  59 0042 A6F58016 		sub	r6, r6, #1048576
  60 0046 B242     		cmp	r2, r6
  61 0048 16D0     		beq	.L8
  62 004a 06F58036 		add	r6, r6, #65536
  63 004e 08E0     		b	.L38
  64              	.L12:
  65 0050 4A4E     		ldr	r6, .L45+4
  66 0052 B242     		cmp	r2, r6
  67 0054 10D0     		beq	.L8
  68 0056 06F58036 		add	r6, r6, #65536
  69 005a B242     		cmp	r2, r6
  70 005c 0CD0     		beq	.L8
  71 005e A6F58016 		sub	r6, r6, #1048576
  72              	.L38:
  73 0062 B242     		cmp	r2, r6
  74 0064 11D1     		bne	.L3
  75 0066 07E0     		b	.L8
  76              	.L10:
  77 0068 0023     		movs	r3, #0
  78 006a 0EE0     		b	.L3
  79              	.L6:
  80 006c CB68     		ldr	r3, [r1, #12]
  81 006e 0833     		adds	r3, r3, #8
  82 0070 0BE0     		b	.L3
  83              	.L4:
  84 0072 CB68     		ldr	r3, [r1, #12]
  85 0074 0C33     		adds	r3, r3, #12
  86 0076 08E0     		b	.L3
  87              	.L8:
  88 0078 8B68     		ldr	r3, [r1, #8]
  89 007a 2BB1     		cbz	r3, .L25
  90 007c 012B     		cmp	r3, #1
  91 007e 0CBF     		ite	eq
  92 0080 0461     		streq	r4, [r0, #16]
  93 0082 4461     		strne	r4, [r0, #20]
  94 0084 0823     		movs	r3, #8
  95 0086 00E0     		b	.L3
  96              	.L25:
  97 0088 0423     		movs	r3, #4
  98              	.L3:
  99 008a FF2C     		cmp	r4, #255
 100 008c 97BF     		itett	ls
 101 008e 8646     		movls	lr, r0
 102 0090 A5F10807 		subhi	r7, r5, #8
 103 0094 0668     		ldrls	r6, [r0]
 104 0096 AF00     		lslls	r7, r5, #2
 105 0098 84BF     		itt	hi
 106 009a 4668     		ldrhi	r6, [r0, #4]
 107 009c BF00     		lslhi	r7, r7, #2
 108 009e 4FF00F02 		mov	r2, #15
 109 00a2 02FA07FC 		lsl	ip, r2, r7
 110 00a6 26EA0C06 		bic	r6, r6, ip
 111 00aa 03FA07F7 		lsl	r7, r3, r7
 112 00ae 46EA0706 		orr	r6, r6, r7
 113 00b2 88BF     		it	hi
 114 00b4 00F1040E 		addhi	lr, r0, #4
 115 00b8 CEF80060 		str	r6, [lr]
ARM GAS  /tmp/ccWamGgH.s 			page 3


 116 00bc 4F68     		ldr	r7, [r1, #4]
 117 00be FE00     		lsls	r6, r7, #3
 118 00c0 54D5     		bpl	.L2
 119 00c2 2F4E     		ldr	r6, .L45+8
 120 00c4 05F0030C 		and	ip, r5, #3
 121 00c8 D6F818E0 		ldr	lr, [r6, #24]
 122 00cc 4FEA8C0C 		lsl	ip, ip, #2
 123 00d0 4EF0010E 		orr	lr, lr, #1
 124 00d4 C6F818E0 		str	lr, [r6, #24]
 125 00d8 B669     		ldr	r6, [r6, #24]
 126 00da 02FA0CF2 		lsl	r2, r2, ip
 127 00de 06F00106 		and	r6, r6, #1
 128 00e2 0196     		str	r6, [sp, #4]
 129 00e4 019E     		ldr	r6, [sp, #4]
 130 00e6 25F00306 		bic	r6, r5, #3
 131 00ea 06F18046 		add	r6, r6, #1073741824
 132 00ee 06F58036 		add	r6, r6, #65536
 133 00f2 D6F808E0 		ldr	lr, [r6, #8]
 134 00f6 2EEA020E 		bic	lr, lr, r2
 135 00fa 224A     		ldr	r2, .L45+12
 136 00fc 9042     		cmp	r0, r2
 137 00fe 0ED0     		beq	.L26
 138 0100 02F58062 		add	r2, r2, #1024
 139 0104 9042     		cmp	r0, r2
 140 0106 0CD0     		beq	.L27
 141 0108 02F58062 		add	r2, r2, #1024
 142 010c 9042     		cmp	r0, r2
 143 010e 0AD0     		beq	.L28
 144 0110 02F58062 		add	r2, r2, #1024
 145 0114 9042     		cmp	r0, r2
 146 0116 0CBF     		ite	eq
 147 0118 0322     		moveq	r2, #3
 148 011a 0422     		movne	r2, #4
 149 011c 04E0     		b	.L16
 150              	.L26:
 151 011e 0022     		movs	r2, #0
 152 0120 02E0     		b	.L16
 153              	.L27:
 154 0122 0122     		movs	r2, #1
 155 0124 00E0     		b	.L16
 156              	.L28:
 157 0126 0222     		movs	r2, #2
 158              	.L16:
 159 0128 02FA0CF2 		lsl	r2, r2, ip
 160 012c 42EA0E02 		orr	r2, r2, lr
 161 0130 B260     		str	r2, [r6, #8]
 162 0132 154A     		ldr	r2, .L45+16
 163 0134 17F4803F 		tst	r7, #65536
 164 0138 1668     		ldr	r6, [r2]
 165 013a 14BF     		ite	ne
 166 013c 2643     		orrne	r6, r6, r4
 167 013e A643     		biceq	r6, r6, r4
 168 0140 1660     		str	r6, [r2]
 169 0142 5668     		ldr	r6, [r2, #4]
 170 0144 17F4003F 		tst	r7, #131072
 171 0148 14BF     		ite	ne
 172 014a 2643     		orrne	r6, r6, r4
ARM GAS  /tmp/ccWamGgH.s 			page 4


 173 014c A643     		biceq	r6, r6, r4
 174 014e 5660     		str	r6, [r2, #4]
 175 0150 9668     		ldr	r6, [r2, #8]
 176 0152 17F4801F 		tst	r7, #1048576
 177 0156 14BF     		ite	ne
 178 0158 2643     		orrne	r6, r6, r4
 179 015a A643     		biceq	r6, r6, r4
 180 015c 9660     		str	r6, [r2, #8]
 181 015e D668     		ldr	r6, [r2, #12]
 182 0160 BF02     		lsls	r7, r7, #10
 183 0162 4CBF     		ite	mi
 184 0164 3443     		orrmi	r4, r4, r6
 185 0166 26EA0404 		bicpl	r4, r6, r4
 186 016a D460     		str	r4, [r2, #12]
 187              	.L2:
 188 016c 0135     		adds	r5, r5, #1
 189 016e 102D     		cmp	r5, #16
 190 0170 7FF449AF 		bne	.L24
 191 0174 03B0     		add	sp, sp, #12
 192              		@ sp needed
 193 0176 F0BD     		pop	{r4, r5, r6, r7, pc}
 194              	.L46:
 195              		.align	2
 196              	.L45:
 197 0178 00002110 		.word	270598144
 198 017c 00003110 		.word	271646720
 199 0180 00100240 		.word	1073876992
 200 0184 00080140 		.word	1073809408
 201 0188 00040140 		.word	1073808384
 203              		.section	.text.HAL_GPIO_DeInit,"ax",%progbits
 204              		.align	1
 205              		.global	HAL_GPIO_DeInit
 206              		.thumb
 207              		.thumb_func
 209              	HAL_GPIO_DeInit:
 210              		@ args = 0, pretend = 0, frame = 0
 211              		@ frame_needed = 0, uses_anonymous_args = 0
 212 0000 F0B5     		push	{r4, r5, r6, r7, lr}
 213 0002 0025     		movs	r5, #0
 214              	.L48:
 215 0004 31FA05F3 		lsrs	r3, r1, r5
 216 0008 5DD0     		beq	.L60
 217 000a 0124     		movs	r4, #1
 218 000c AC40     		lsls	r4, r4, r5
 219 000e 0C40     		ands	r4, r4, r1
 220 0010 57D0     		beq	.L50
 221 0012 FF2C     		cmp	r4, #255
 222 0014 98BF     		it	ls
 223 0016 8646     		movls	lr, r0
 224 0018 6FEA0404 		mvn	r4, r4
 225 001c 8BBF     		itete	hi
 226 001e A5F10807 		subhi	r7, r5, #8
 227 0022 0368     		ldrls	r3, [r0]
 228 0024 4368     		ldrhi	r3, [r0, #4]
 229 0026 AF00     		lslls	r7, r5, #2
 230 0028 88BF     		it	hi
 231 002a BF00     		lslhi	r7, r7, #2
ARM GAS  /tmp/ccWamGgH.s 			page 5


 232 002c 4FF00F06 		mov	r6, #15
 233 0030 06FA07F2 		lsl	r2, r6, r7
 234 0034 23EA0203 		bic	r3, r3, r2
 235 0038 4FF00402 		mov	r2, #4
 236 003c 02FA07F2 		lsl	r2, r2, r7
 237 0040 88BF     		it	hi
 238 0042 00F1040E 		addhi	lr, r0, #4
 239 0046 1343     		orrs	r3, r3, r2
 240 0048 CEF80030 		str	r3, [lr]
 241 004c C368     		ldr	r3, [r0, #12]
 242 004e 25F00302 		bic	r2, r5, #3
 243 0052 2340     		ands	r3, r3, r4
 244 0054 02F18042 		add	r2, r2, #1073741824
 245 0058 C360     		str	r3, [r0, #12]
 246 005a 02F58032 		add	r2, r2, #65536
 247 005e 05F00307 		and	r7, r5, #3
 248 0062 9368     		ldr	r3, [r2, #8]
 249 0064 BF00     		lsls	r7, r7, #2
 250 0066 BE40     		lsls	r6, r6, r7
 251 0068 06EA030E 		and	lr, r6, r3
 252 006c 164B     		ldr	r3, .L61
 253 006e 9842     		cmp	r0, r3
 254 0070 0ED0     		beq	.L56
 255 0072 03F58063 		add	r3, r3, #1024
 256 0076 9842     		cmp	r0, r3
 257 0078 0CD0     		beq	.L57
 258 007a 03F58063 		add	r3, r3, #1024
 259 007e 9842     		cmp	r0, r3
 260 0080 0AD0     		beq	.L58
 261 0082 03F58063 		add	r3, r3, #1024
 262 0086 9842     		cmp	r0, r3
 263 0088 0CBF     		ite	eq
 264 008a 0323     		moveq	r3, #3
 265 008c 0423     		movne	r3, #4
 266 008e 04E0     		b	.L53
 267              	.L56:
 268 0090 0023     		movs	r3, #0
 269 0092 02E0     		b	.L53
 270              	.L57:
 271 0094 0123     		movs	r3, #1
 272 0096 00E0     		b	.L53
 273              	.L58:
 274 0098 0223     		movs	r3, #2
 275              	.L53:
 276 009a BB40     		lsls	r3, r3, r7
 277 009c 9E45     		cmp	lr, r3
 278 009e 10D1     		bne	.L50
 279 00a0 9368     		ldr	r3, [r2, #8]
 280 00a2 23EA0606 		bic	r6, r3, r6
 281 00a6 094B     		ldr	r3, .L61+4
 282 00a8 9660     		str	r6, [r2, #8]
 283 00aa 1A68     		ldr	r2, [r3]
 284 00ac 2240     		ands	r2, r2, r4
 285 00ae 1A60     		str	r2, [r3]
 286 00b0 5A68     		ldr	r2, [r3, #4]
 287 00b2 2240     		ands	r2, r2, r4
 288 00b4 5A60     		str	r2, [r3, #4]
ARM GAS  /tmp/ccWamGgH.s 			page 6


 289 00b6 9A68     		ldr	r2, [r3, #8]
 290 00b8 2240     		ands	r2, r2, r4
 291 00ba 9A60     		str	r2, [r3, #8]
 292 00bc DA68     		ldr	r2, [r3, #12]
 293 00be 1440     		ands	r4, r4, r2
 294 00c0 DC60     		str	r4, [r3, #12]
 295              	.L50:
 296 00c2 0135     		adds	r5, r5, #1
 297 00c4 9EE7     		b	.L48
 298              	.L60:
 299 00c6 F0BD     		pop	{r4, r5, r6, r7, pc}
 300              	.L62:
 301              		.align	2
 302              	.L61:
 303 00c8 00080140 		.word	1073809408
 304 00cc 00040140 		.word	1073808384
 306              		.section	.text.HAL_GPIO_ReadPin,"ax",%progbits
 307              		.align	1
 308              		.global	HAL_GPIO_ReadPin
 309              		.thumb
 310              		.thumb_func
 312              	HAL_GPIO_ReadPin:
 313              		@ args = 0, pretend = 0, frame = 0
 314              		@ frame_needed = 0, uses_anonymous_args = 0
 315              		@ link register save eliminated.
 316 0000 8368     		ldr	r3, [r0, #8]
 317 0002 1942     		tst	r1, r3
 318 0004 14BF     		ite	ne
 319 0006 0120     		movne	r0, #1
 320 0008 0020     		moveq	r0, #0
 321 000a 7047     		bx	lr
 323              		.section	.text.HAL_GPIO_WritePin,"ax",%progbits
 324              		.align	1
 325              		.global	HAL_GPIO_WritePin
 326              		.thumb
 327              		.thumb_func
 329              	HAL_GPIO_WritePin:
 330              		@ args = 0, pretend = 0, frame = 0
 331              		@ frame_needed = 0, uses_anonymous_args = 0
 332              		@ link register save eliminated.
 333 0000 02B9     		cbnz	r2, .L67
 334 0002 0904     		lsls	r1, r1, #16
 335              	.L67:
 336 0004 0161     		str	r1, [r0, #16]
 337 0006 7047     		bx	lr
 339              		.section	.text.HAL_GPIO_TogglePin,"ax",%progbits
 340              		.align	1
 341              		.global	HAL_GPIO_TogglePin
 342              		.thumb
 343              		.thumb_func
 345              	HAL_GPIO_TogglePin:
 346              		@ args = 0, pretend = 0, frame = 0
 347              		@ frame_needed = 0, uses_anonymous_args = 0
 348              		@ link register save eliminated.
 349 0000 C368     		ldr	r3, [r0, #12]
 350 0002 5940     		eors	r1, r1, r3
 351 0004 C160     		str	r1, [r0, #12]
ARM GAS  /tmp/ccWamGgH.s 			page 7


 352 0006 7047     		bx	lr
 354              		.section	.text.HAL_GPIO_LockPin,"ax",%progbits
 355              		.align	1
 356              		.global	HAL_GPIO_LockPin
 357              		.thumb
 358              		.thumb_func
 360              	HAL_GPIO_LockPin:
 361              		@ args = 0, pretend = 0, frame = 8
 362              		@ frame_needed = 0, uses_anonymous_args = 0
 363              		@ link register save eliminated.
 364 0000 82B0     		sub	sp, sp, #8
 365 0002 4FF48033 		mov	r3, #65536
 366 0006 0193     		str	r3, [sp, #4]
 367 0008 019B     		ldr	r3, [sp, #4]
 368 000a 0B43     		orrs	r3, r3, r1
 369 000c 0193     		str	r3, [sp, #4]
 370 000e 019B     		ldr	r3, [sp, #4]
 371 0010 8361     		str	r3, [r0, #24]
 372 0012 8161     		str	r1, [r0, #24]
 373 0014 019B     		ldr	r3, [sp, #4]
 374 0016 8361     		str	r3, [r0, #24]
 375 0018 8369     		ldr	r3, [r0, #24]
 376 001a 0193     		str	r3, [sp, #4]
 377 001c 8069     		ldr	r0, [r0, #24]
 378 001e 80F48030 		eor	r0, r0, #65536
 379 0022 C0F30040 		ubfx	r0, r0, #16, #1
 380 0026 02B0     		add	sp, sp, #8
 381              		@ sp needed
 382 0028 7047     		bx	lr
 384              		.section	.text.HAL_GPIO_EXTI_Callback,"ax",%progbits
 385              		.align	1
 386              		.weak	HAL_GPIO_EXTI_Callback
 387              		.thumb
 388              		.thumb_func
 390              	HAL_GPIO_EXTI_Callback:
 391              		@ args = 0, pretend = 0, frame = 0
 392              		@ frame_needed = 0, uses_anonymous_args = 0
 393              		@ link register save eliminated.
 394 0000 7047     		bx	lr
 396              		.section	.text.HAL_GPIO_EXTI_IRQHandler,"ax",%progbits
 397              		.align	1
 398              		.global	HAL_GPIO_EXTI_IRQHandler
 399              		.thumb
 400              		.thumb_func
 402              	HAL_GPIO_EXTI_IRQHandler:
 403              		@ args = 0, pretend = 0, frame = 0
 404              		@ frame_needed = 0, uses_anonymous_args = 0
 405 0000 08B5     		push	{r3, lr}
 406 0002 044B     		ldr	r3, .L76
 407 0004 5969     		ldr	r1, [r3, #20]
 408 0006 0842     		tst	r0, r1
 409 0008 02D0     		beq	.L71
 410 000a 5861     		str	r0, [r3, #20]
 411 000c FFF7FEFF 		bl	HAL_GPIO_EXTI_Callback
 412              	.L71:
 413 0010 08BD     		pop	{r3, pc}
 414              	.L77:
ARM GAS  /tmp/ccWamGgH.s 			page 8


 415 0012 00BF     		.align	2
 416              	.L76:
 417 0014 00040140 		.word	1073808384
 419              		.ident	"GCC: (15:4.9.3+svn231177-1) 4.9.3 20150529 (prerelease)"
ARM GAS  /tmp/ccWamGgH.s 			page 9

